   1               		.file	"main.c"
   2               	__SREG__ = 0x3f
   3               	__SP_H__ = 0x3e
   4               	__SP_L__ = 0x3d
   5               	__tmp_reg__ = 0
   6               	__zero_reg__ = 1
   7               		.global __do_copy_data
   8               		.global __do_clear_bss
  16               	.Ltext0:
  17               	.global	ioinit
  19               	ioinit:
  20               	.LFB5:
  21               	.LM1:
  22               	/* prologue: frame size=0 */
  23               	/* prologue end (size=0) */
  24               	.LM2:
  25 0000 2D9A      		sbi 37-0x20,5
  26               	.LM3:
  27 0002 84B1      		in r24,36-0x20
  28 0004 8362      		ori r24,lo8(35)
  29 0006 84B9      		out 36-0x20,r24
  30               	.LM4:
  31 0008 84E0      		ldi r24,lo8(4)
  32 000a 8093 8100 		sts 129,r24
  33               	.LM5:
  34 000e 82E0      		ldi r24,lo8(2)
  35 0010 8093 B100 		sts 177,r24
  36               	/* epilogue: frame size=0 */
  37 0014 0895      		ret
  38               	/* epilogue end (size=1) */
  39               	/* function ioinit size 11 (10) */
  40               	.LFE5:
  42               	.global	USART_Init
  44               	USART_Init:
  45               	.LFB6:
  46               	.LM6:
  47               	/* prologue: frame size=0 */
  48               	/* prologue end (size=0) */
  49               	.LVL0:
  50               	.LM7:
  51 0016 292F      		mov r18,r25
  52 0018 3327      		clr r19
  53 001a 2093 C500 		sts 197,r18
  54               	.LM8:
  55 001e 8093 C400 		sts 196,r24
  56               	.LM9:
  57 0022 82E0      		ldi r24,lo8(2)
  58               	.LVL1:
  59 0024 8093 C000 		sts 192,r24
  60               	.LM10:
  61 0028 88E1      		ldi r24,lo8(24)
  62 002a 8093 C100 		sts 193,r24
  63               	.LM11:
  64 002e 86E0      		ldi r24,lo8(6)
  65 0030 8093 C200 		sts 194,r24
  66               	/* epilogue: frame size=0 */
  67 0034 0895      		ret
  68               	/* epilogue end (size=1) */
  69               	/* function USART_Init size 16 (15) */
  70               	.LFE6:
  72               	.global	delay_us
  74               	delay_us:
  75               	.LFB8:
  76               	.LM12:
  77               	/* prologue: frame size=0 */
  78               	/* prologue end (size=0) */
  79               	.LVL2:
  80               	.LM13:
  81 0036 8823      		tst r24
  82 0038 01F4      		brne .L8
  83               	.LM14:
  84 003a 81E0      		ldi r24,lo8(1)
  85               	.LVL3:
  86               	.L8:
  87               	.LM15:
  88 003c B89A      		sbi 55-0x20,0
  89               	.LM16:
  90 003e 8195      		neg r24
  91               	.LVL4:
  92 0040 8093 B200 		sts 178,r24
  93               	.L9:
  94               	.LM17:
  95 0044 B89B      		sbis 55-0x20,0
  96 0046 00C0      		rjmp .L9
  97               	/* epilogue: frame size=0 */
  98 0048 0895      		ret
  99               	/* epilogue end (size=1) */
 100               	/* function delay_us size 10 (9) */
 101               	.LFE8:
 103               	.global	delay_ms
 105               	delay_ms:
 106               	.LFB7:
 107               	.LM18:
 108               	/* prologue: frame size=0 */
 109 004a CF93      		push r28
 110 004c DF93      		push r29
 111               	/* prologue end (size=2) */
 112               	.LVL5:
 113 004e EC01      		movw r28,r24
 114 0050 00C0      		rjmp .L15
 115               	.LVL6:
 116               	.L16:
 117               	.LM19:
 118 0052 8AEF      		ldi r24,lo8(-6)
 119 0054 0E94 0000 		call delay_us
 120               	.LM20:
 121 0058 8AEF      		ldi r24,lo8(-6)
 122 005a 0E94 0000 		call delay_us
 123               	.LM21:
 124 005e 8AEF      		ldi r24,lo8(-6)
 125 0060 0E94 0000 		call delay_us
 126               	.LM22:
 127 0064 8AEF      		ldi r24,lo8(-6)
 128 0066 0E94 0000 		call delay_us
 129               	.LM23:
 130 006a 2197      		sbiw r28,1
 131               	.LVL7:
 132               	.L15:
 133 006c 2097      		sbiw r28,0
 134 006e 01F4      		brne .L16
 135               	/* epilogue: frame size=0 */
 136 0070 DF91      		pop r29
 137 0072 CF91      		pop r28
 138 0074 0895      		ret
 139               	/* epilogue end (size=3) */
 140               	/* function delay_ms size 22 (17) */
 141               	.LFE7:
 143               	.global	put_char
 145               	put_char:
 146               	.LFB9:
 147               	.LM24:
 148               	/* prologue: frame size=0 */
 149               	/* prologue end (size=0) */
 150               	.LVL8:
 151 0076 982F      		mov r25,r24
 152               	.LVL9:
 153               	.L21:
 154               	.LM25:
 155 0078 8091 C000 		lds r24,192
 156 007c 85FF      		sbrs r24,5
 157 007e 00C0      		rjmp .L21
 158               	.LM26:
 159 0080 9093 C600 		sts 198,r25
 160               	/* epilogue: frame size=0 */
 161 0084 0895      		ret
 162               	/* epilogue end (size=1) */
 163               	/* function put_char size 8 (7) */
 164               	.LFE9:
 166               	.global	get_char
 168               	get_char:
 169               	.LFB10:
 170               	.LM27:
 171               	/* prologue: frame size=0 */
 172               	/* prologue end (size=0) */
 173               	.L28:
 174               	.LM28:
 175 0086 8091 C000 		lds r24,192
 176 008a 87FF      		sbrs r24,7
 177 008c 00C0      		rjmp .L28
 178               	.LM29:
 179 008e 8091 C600 		lds r24,198
 180               	.LM30:
 181 0092 90E0      		ldi r25,lo8(0)
 182               	/* epilogue: frame size=0 */
 183 0094 0895      		ret
 184               	/* epilogue end (size=1) */
 185               	/* function get_char size 8 (7) */
 186               	.LFE10:
 188               	.global	EEPROM_write
 190               	EEPROM_write:
 191               	.LFB12:
 192               	.LM31:
 193               	/* prologue: frame size=0 */
 194               	/* prologue end (size=0) */
 195               	.LVL10:
 196               	.L35:
 197               	.LM32:
 198 0096 F999      		sbic 63-0x20,1
 199 0098 00C0      		rjmp .L35
 200               	.LM33:
 201 009a 92BD      		out (65)+1-0x20,r25
 202 009c 81BD      		out 65-0x20,r24
 203               	.LM34:
 204 009e 60BD      		out 64-0x20,r22
 205               	.LM35:
 206 00a0 FA9A      		sbi 63-0x20,2
 207               	.LM36:
 208 00a2 F99A      		sbi 63-0x20,1
 209               	/* epilogue: frame size=0 */
 210 00a4 0895      		ret
 211               	/* epilogue end (size=1) */
 212               	/* function EEPROM_write size 8 (7) */
 213               	.LFE12:
 215               	.global	EEPROM_read
 217               	EEPROM_read:
 218               	.LFB13:
 219               	.LM37:
 220               	/* prologue: frame size=0 */
 221               	/* prologue end (size=0) */
 222               	.LVL11:
 223               	.L42:
 224               	.LM38:
 225 00a6 F999      		sbic 63-0x20,1
 226 00a8 00C0      		rjmp .L42
 227               	.LM39:
 228 00aa 92BD      		out (65)+1-0x20,r25
 229 00ac 81BD      		out 65-0x20,r24
 230               	.LM40:
 231 00ae F89A      		sbi 63-0x20,0
 232               	.LM41:
 233 00b0 80B5      		in r24,64-0x20
 234               	.LVL12:
 235               	.LM42:
 236 00b2 90E0      		ldi r25,lo8(0)
 237               	/* epilogue: frame size=0 */
 238 00b4 0895      		ret
 239               	/* epilogue end (size=1) */
 240               	/* function EEPROM_read size 8 (7) */
 241               	.LFE13:
 243               		.data
 244               	.LC0:
 245 0000 0D0A 3644 		.string	"\r\n6DOF Atomic setup, version 1.0\r\n"
 245      4F46 2041 
 245      746F 6D69 
 245      6320 7365 
 245      7475 702C 
 246               	.LC1:
 247 0023 3D3D 3D3D 		.string	"========================================\r\n"
 247      3D3D 3D3D 
 247      3D3D 3D3D 
 247      3D3D 3D3D 
 247      3D3D 3D3D 
 248               	.LC2:
 249 004e 3129 2056 		.string	"1) View/edit active channel list\r\n"
 249      6965 772F 
 249      6564 6974 
 249      2061 6374 
 249      6976 6520 
 250               	.LC3:
 251 0071 3229 2043 		.string	"2) Change output mode, currently "
 251      6861 6E67 
 251      6520 6F75 
 251      7470 7574 
 251      206D 6F64 
 252               	.LC4:
 253 0093 6269 6E61 		.string	"binary\r\n"
 253      7279 0D0A 
 253      00
 254               	.LC5:
 255 009c 4153 4349 		.string	"ASCII\r\n"
 255      490D 0A00 
 256               	.LC6:
 257 00a4 3329 2053 		.string	"3) Set Auto run mode, currently "
 257      6574 2041 
 257      7574 6F20 
 257      7275 6E20 
 257      6D6F 6465 
 258               	.LC7:
 259 00c5 6F66 660D 		.string	"off\r\n"
 259      0A00 
 260               	.LC8:
 261 00cb 6F6E 0D0A 		.string	"on\r\n"
 261      00
 262               	.LC9:
 263 00d0 3429 2053 		.string	"4) Set accelerometer sensitivity, currently "
 263      6574 2061 
 263      6363 656C 
 263      6572 6F6D 
 263      6574 6572 
 264               	.LC10:
 265 00fd 312E 3567 		.string	"1.5g\r\n"
 265      0D0A 00
 266               	.LC11:
 267 0104 3267 0D0A 		.string	"2g\r\n"
 267      00
 268               	.LC12:
 269 0109 3467 0D0A 		.string	"4g\r\n"
 269      00
 270               	.LC13:
 271 010e 3667 0D0A 		.string	"6g\r\n"
 271      00
 272               	.LC14:
 273 0113 3529 2053 		.string	"5) Set output frequency, currently %d\r\n"
 273      6574 206F 
 273      7574 7075 
 273      7420 6672 
 273      6571 7565 
 274               	.LC15:
 275 013b 3929 2053 		.string	"9) Save settings and run unit\r\n"
 275      6176 6520 
 275      7365 7474 
 275      696E 6773 
 275      2061 6E64 
 276               	.LC16:
 277 015b 3129 2041 		.string	"1) Accel X = "
 277      6363 656C 
 277      2058 203D 
 277      2000 
 278               	.LC17:
 279 0169 3229 2041 		.string	"2) Accel Y = "
 279      6363 656C 
 279      2059 203D 
 279      2000 
 280               	.LC18:
 281 0177 3329 2041 		.string	"3) Accel Z = "
 281      6363 656C 
 281      205A 203D 
 281      2000 
 282               	.LC19:
 283 0185 3429 2050 		.string	"4) Pitch = "
 283      6974 6368 
 283      203D 2000 
 284               	.LC20:
 285 0191 3529 2052 		.string	"5) Roll = "
 285      6F6C 6C20 
 285      3D20 00
 286               	.LC21:
 287 019c 3629 2059 		.string	"6) Yaw = "
 287      6177 203D 
 287      2000 
 288               	.LC22:
 289 01a6 5072 6573 		.string	"Press the number of the channel you wish to change,\r\n"
 289      7320 7468 
 289      6520 6E75 
 289      6D62 6572 
 289      206F 6620 
 290               	.LC23:
 291 01dc 6F72 2070 		.string	"or press x to exit\r\n"
 291      7265 7373 
 291      2078 2074 
 291      6F20 6578 
 291      6974 0D0A 
 292               	.LC24:
 293 01f1 0D0A 5365 		.string	"\r\nSet to:\r\n"
 293      7420 746F 
 293      3A0D 0A00 
 294               	.LC25:
 295 01fd 3129 2031 		.string	"1) 1.5g\r\n"
 295      2E35 670D 
 295      0A00 
 296               	.LC26:
 297 0207 3229 2032 		.string	"2) 2g\r\n"
 297      670D 0A00 
 298               	.LC27:
 299 020f 3329 2034 		.string	"3) 4g\r\n"
 299      670D 0A00 
 300               	.LC28:
 301 0217 3429 2036 		.string	"4) 6g\r\n"
 301      670D 0A00 
 302               	.LC29:
 303 021f 0D0A 5072 		.string	"\r\nPress [i] to increase, [d] to decrease, [x] to exit\r\n"
 303      6573 7320 
 303      5B69 5D20 
 303      746F 2069 
 303      6E63 7265 
 304               	.LC30:
 305 0257 2564 00   		.string	"%d"
 306               	.LC31:
 307 025a 2020 2020 		.string	"     \r"
 307      200D 00
 308               	.LC32:
 309 0261 4578 6974 		.string	"Exiting...\r\n"
 309      696E 672E 
 309      2E2E 0D0A 
 309      00
 310               		.text
 311               	.global	config_menu
 313               	config_menu:
 314               	.LFB14:
 315               	.LM43:
 316               	/* prologue: frame size=0 */
 317 00b6 2F92      		push r2
 318 00b8 3F92      		push r3
 319 00ba 4F92      		push r4
 320 00bc 5F92      		push r5
 321 00be 6F92      		push r6
 322 00c0 7F92      		push r7
 323 00c2 8F92      		push r8
 324 00c4 9F92      		push r9
 325 00c6 AF92      		push r10
 326 00c8 BF92      		push r11
 327 00ca CF92      		push r12
 328 00cc DF92      		push r13
 329 00ce EF92      		push r14
 330 00d0 FF92      		push r15
 331 00d2 1F93      		push r17
 332 00d4 CF93      		push r28
 333 00d6 DF93      		push r29
 334               	/* prologue end (size=17) */
 335               	.LM44:
 336 00d8 6091 0000 		lds r22,freq
 337 00dc 7091 0000 		lds r23,(freq)+1
 338 00e0 8091 0000 		lds r24,(freq)+2
 339 00e4 9091 0000 		lds r25,(freq)+3
 340 00e8 0E94 0000 		call __fixsfsi
 341 00ec EB01      		movw r28,r22
 342               	.LM45:
 343 00ee 82E0      		ldi r24,lo8(2)
 344 00f0 90E0      		ldi r25,hi8(2)
 345 00f2 0E94 0000 		call EEPROM_read
 346               	.LM46:
 347 00f6 182F      		mov r17,r24
 348 00f8 1C70      		andi r17,lo8(12)
 349               	.LM47:
 350 00fa 2D98      		cbi 37-0x20,5
 351               	.LM48:
 352 00fc F0E0      		ldi r31,lo8(.LC8)
 353 00fe 8F2E      		mov r8,r31
 354 0100 F0E0      		ldi r31,hi8(.LC8)
 355 0102 9F2E      		mov r9,r31
 356               	.LM49:
 357 0104 E0E0      		ldi r30,lo8(.LC7)
 358 0106 AE2E      		mov r10,r30
 359 0108 E0E0      		ldi r30,hi8(.LC7)
 360 010a BE2E      		mov r11,r30
 361               	.LM50:
 362 010c 70E0      		ldi r23,lo8(.LC16)
 363 010e 272E      		mov r2,r23
 364 0110 70E0      		ldi r23,hi8(.LC16)
 365 0112 372E      		mov r3,r23
 366               	.LM51:
 367 0114 60E0      		ldi r22,lo8(.LC23)
 368 0116 662E      		mov r6,r22
 369 0118 60E0      		ldi r22,hi8(.LC23)
 370 011a 762E      		mov r7,r22
 371               	.LM52:
 372 011c 50E0      		ldi r21,lo8(.LC29)
 373 011e 452E      		mov r4,r21
 374 0120 50E0      		ldi r21,hi8(.LC29)
 375 0122 552E      		mov r5,r21
 376               	.L163:
 377               	.LM53:
 378 0124 1F92      		push __zero_reg__
 379 0126 1F92      		push __zero_reg__
 380 0128 80E0      		ldi r24,lo8(.LC0)
 381 012a 90E0      		ldi r25,hi8(.LC0)
 382 012c 9F93      		push r25
 383 012e 8F93      		push r24
 384 0130 0E94 0000 		call rprintf
 385               	.LM54:
 386 0134 1F92      		push __zero_reg__
 387 0136 1F92      		push __zero_reg__
 388 0138 80E0      		ldi r24,lo8(.LC1)
 389 013a 90E0      		ldi r25,hi8(.LC1)
 390 013c 9F93      		push r25
 391 013e 8F93      		push r24
 392 0140 0E94 0000 		call rprintf
 393               	.LM55:
 394 0144 1F92      		push __zero_reg__
 395 0146 1F92      		push __zero_reg__
 396 0148 80E0      		ldi r24,lo8(.LC2)
 397 014a 90E0      		ldi r25,hi8(.LC2)
 398 014c 9F93      		push r25
 399 014e 8F93      		push r24
 400 0150 0E94 0000 		call rprintf
 401               	.LM56:
 402 0154 1F92      		push __zero_reg__
 403 0156 1F92      		push __zero_reg__
 404 0158 80E0      		ldi r24,lo8(.LC3)
 405 015a 90E0      		ldi r25,hi8(.LC3)
 406 015c 9F93      		push r25
 407 015e 8F93      		push r24
 408 0160 0E94 0000 		call rprintf
 409               	.LM57:
 410 0164 8DB7      		in r24,__SP_L__
 411 0166 9EB7      		in r25,__SP_H__
 412 0168 4096      		adiw r24,16
 413 016a 0FB6      		in __tmp_reg__,__SREG__
 414 016c F894      		cli
 415 016e 9EBF      		out __SP_H__,r25
 416 0170 0FBE      		out __SREG__,__tmp_reg__
 417 0172 8DBF      		out __SP_L__,r24
 418 0174 8091 0000 		lds r24,asc
 419 0178 8823      		tst r24
 420 017a 01F4      		brne .L49
 421 017c 1F92      		push __zero_reg__
 422 017e 1F92      		push __zero_reg__
 423 0180 80E0      		ldi r24,lo8(.LC4)
 424 0182 90E0      		ldi r25,hi8(.LC4)
 425 0184 00C0      		rjmp .L153
 426               	.L49:
 427               	.LM58:
 428 0186 1F92      		push __zero_reg__
 429 0188 1F92      		push __zero_reg__
 430 018a 80E0      		ldi r24,lo8(.LC5)
 431 018c 90E0      		ldi r25,hi8(.LC5)
 432               	.L153:
 433 018e 9F93      		push r25
 434 0190 8F93      		push r24
 435 0192 0E94 0000 		call rprintf
 436 0196 0F90      		pop __tmp_reg__
 437 0198 0F90      		pop __tmp_reg__
 438 019a 0F90      		pop __tmp_reg__
 439 019c 0F90      		pop __tmp_reg__
 440               	.LM59:
 441 019e 1F92      		push __zero_reg__
 442 01a0 1F92      		push __zero_reg__
 443 01a2 80E0      		ldi r24,lo8(.LC6)
 444 01a4 90E0      		ldi r25,hi8(.LC6)
 445 01a6 9F93      		push r25
 446 01a8 8F93      		push r24
 447 01aa 0E94 0000 		call rprintf
 448               	.LM60:
 449 01ae 0F90      		pop __tmp_reg__
 450 01b0 0F90      		pop __tmp_reg__
 451 01b2 0F90      		pop __tmp_reg__
 452 01b4 0F90      		pop __tmp_reg__
 453 01b6 8091 0000 		lds r24,auto_run
 454 01ba 8823      		tst r24
 455 01bc 01F4      		brne .L52
 456 01be 1F92      		push __zero_reg__
 457 01c0 1F92      		push __zero_reg__
 458 01c2 BF92      		push r11
 459 01c4 AF92      		push r10
 460 01c6 00C0      		rjmp .L154
 461               	.L52:
 462               	.LM61:
 463 01c8 1F92      		push __zero_reg__
 464 01ca 1F92      		push __zero_reg__
 465 01cc 9F92      		push r9
 466 01ce 8F92      		push r8
 467               	.L154:
 468 01d0 0E94 0000 		call rprintf
 469 01d4 0F90      		pop __tmp_reg__
 470 01d6 0F90      		pop __tmp_reg__
 471 01d8 0F90      		pop __tmp_reg__
 472 01da 0F90      		pop __tmp_reg__
 473               	.LM62:
 474 01dc 1F92      		push __zero_reg__
 475 01de 1F92      		push __zero_reg__
 476 01e0 80E0      		ldi r24,lo8(.LC9)
 477 01e2 90E0      		ldi r25,hi8(.LC9)
 478 01e4 9F93      		push r25
 479 01e6 8F93      		push r24
 480 01e8 0E94 0000 		call rprintf
 481               	.LM63:
 482 01ec 812F      		mov r24,r17
 483 01ee 90E0      		ldi r25,lo8(0)
 484 01f0 8C70      		andi r24,lo8(12)
 485 01f2 9070      		andi r25,hi8(12)
 486 01f4 0F90      		pop __tmp_reg__
 487 01f6 0F90      		pop __tmp_reg__
 488 01f8 0F90      		pop __tmp_reg__
 489 01fa 0F90      		pop __tmp_reg__
 490 01fc 0097      		sbiw r24,0
 491 01fe 01F4      		brne .L55
 492 0200 1F92      		push __zero_reg__
 493 0202 1F92      		push __zero_reg__
 494 0204 80E0      		ldi r24,lo8(.LC10)
 495 0206 90E0      		ldi r25,hi8(.LC10)
 496 0208 00C0      		rjmp .L155
 497               	.L55:
 498               	.LM64:
 499 020a 8430      		cpi r24,4
 500 020c 9105      		cpc r25,__zero_reg__
 501 020e 01F4      		brne .L58
 502 0210 1F92      		push __zero_reg__
 503 0212 1F92      		push __zero_reg__
 504 0214 80E0      		ldi r24,lo8(.LC11)
 505 0216 90E0      		ldi r25,hi8(.LC11)
 506 0218 00C0      		rjmp .L155
 507               	.L58:
 508               	.LM65:
 509 021a 8830      		cpi r24,8
 510 021c 9105      		cpc r25,__zero_reg__
 511 021e 01F4      		brne .L60
 512 0220 1F92      		push __zero_reg__
 513 0222 1F92      		push __zero_reg__
 514 0224 80E0      		ldi r24,lo8(.LC12)
 515 0226 90E0      		ldi r25,hi8(.LC12)
 516 0228 00C0      		rjmp .L155
 517               	.L60:
 518               	.LM66:
 519 022a 0C97      		sbiw r24,12
 520 022c 01F4      		brne .L57
 521 022e 1F92      		push __zero_reg__
 522 0230 1F92      		push __zero_reg__
 523 0232 80E0      		ldi r24,lo8(.LC13)
 524 0234 90E0      		ldi r25,hi8(.LC13)
 525               	.L155:
 526 0236 9F93      		push r25
 527 0238 8F93      		push r24
 528 023a 0E94 0000 		call rprintf
 529 023e 0F90      		pop __tmp_reg__
 530 0240 0F90      		pop __tmp_reg__
 531 0242 0F90      		pop __tmp_reg__
 532 0244 0F90      		pop __tmp_reg__
 533               	.L57:
 534               	.LM67:
 535 0246 DF93      		push r29
 536 0248 CF93      		push r28
 537 024a 80E0      		ldi r24,lo8(.LC14)
 538 024c 90E0      		ldi r25,hi8(.LC14)
 539 024e 9F93      		push r25
 540 0250 8F93      		push r24
 541 0252 0E94 0000 		call rprintf
 542               	.LM68:
 543 0256 1F92      		push __zero_reg__
 544 0258 1F92      		push __zero_reg__
 545 025a 80E0      		ldi r24,lo8(.LC15)
 546 025c 90E0      		ldi r25,hi8(.LC15)
 547 025e 9F93      		push r25
 548 0260 8F93      		push r24
 549 0262 0E94 0000 		call rprintf
 550 0266 8DB7      		in r24,__SP_L__
 551 0268 9EB7      		in r25,__SP_H__
 552 026a 0896      		adiw r24,8
 553 026c 0FB6      		in __tmp_reg__,__SREG__
 554 026e F894      		cli
 555 0270 9EBF      		out __SP_H__,r25
 556 0272 0FBE      		out __SREG__,__tmp_reg__
 557 0274 8DBF      		out __SP_L__,r24
 558               	.L63:
 559               	.LBB62:
 560               	.LBB63:
 561               	.LM69:
 562 0276 8091 C000 		lds r24,192
 563 027a 87FF      		sbrs r24,7
 564 027c 00C0      		rjmp .L63
 565               	.LM70:
 566 027e 8091 C600 		lds r24,198
 567               	.LBE63:
 568               	.LBE62:
 569               	.LM71:
 570 0282 8133      		cpi r24,lo8(49)
 571 0284 01F0      		breq .+2
 572 0286 00C0      		rjmp .L65
 573               	.L164:
 574               	.LM72:
 575 0288 1F92      		push __zero_reg__
 576 028a 1F92      		push __zero_reg__
 577 028c 3F92      		push r3
 578 028e 2F92      		push r2
 579 0290 0E94 0000 		call rprintf
 580               	.LM73:
 581 0294 8091 0000 		lds r24,active_channels
 582 0298 0F90      		pop __tmp_reg__
 583 029a 0F90      		pop __tmp_reg__
 584 029c 0F90      		pop __tmp_reg__
 585 029e 0F90      		pop __tmp_reg__
 586 02a0 85FF      		sbrs r24,5
 587 02a2 00C0      		rjmp .L67
 588 02a4 1F92      		push __zero_reg__
 589 02a6 1F92      		push __zero_reg__
 590 02a8 9F92      		push r9
 591 02aa 8F92      		push r8
 592 02ac 00C0      		rjmp .L157
 593               	.L67:
 594               	.LM74:
 595 02ae 1F92      		push __zero_reg__
 596 02b0 1F92      		push __zero_reg__
 597 02b2 BF92      		push r11
 598 02b4 AF92      		push r10
 599               	.L157:
 600 02b6 0E94 0000 		call rprintf
 601 02ba 0F90      		pop __tmp_reg__
 602 02bc 0F90      		pop __tmp_reg__
 603 02be 0F90      		pop __tmp_reg__
 604 02c0 0F90      		pop __tmp_reg__
 605               	.LM75:
 606 02c2 1F92      		push __zero_reg__
 607 02c4 1F92      		push __zero_reg__
 608 02c6 80E0      		ldi r24,lo8(.LC17)
 609 02c8 90E0      		ldi r25,hi8(.LC17)
 610 02ca 9F93      		push r25
 611 02cc 8F93      		push r24
 612 02ce 0E94 0000 		call rprintf
 613               	.LM76:
 614 02d2 8091 0000 		lds r24,active_channels
 615 02d6 0F90      		pop __tmp_reg__
 616 02d8 0F90      		pop __tmp_reg__
 617 02da 0F90      		pop __tmp_reg__
 618 02dc 0F90      		pop __tmp_reg__
 619 02de 84FF      		sbrs r24,4
 620 02e0 00C0      		rjmp .L70
 621 02e2 1F92      		push __zero_reg__
 622 02e4 1F92      		push __zero_reg__
 623 02e6 9F92      		push r9
 624 02e8 8F92      		push r8
 625 02ea 00C0      		rjmp .L158
 626               	.L70:
 627               	.LM77:
 628 02ec 1F92      		push __zero_reg__
 629 02ee 1F92      		push __zero_reg__
 630 02f0 BF92      		push r11
 631 02f2 AF92      		push r10
 632               	.L158:
 633 02f4 0E94 0000 		call rprintf
 634 02f8 0F90      		pop __tmp_reg__
 635 02fa 0F90      		pop __tmp_reg__
 636 02fc 0F90      		pop __tmp_reg__
 637 02fe 0F90      		pop __tmp_reg__
 638               	.LM78:
 639 0300 1F92      		push __zero_reg__
 640 0302 1F92      		push __zero_reg__
 641 0304 80E0      		ldi r24,lo8(.LC18)
 642 0306 90E0      		ldi r25,hi8(.LC18)
 643 0308 9F93      		push r25
 644 030a 8F93      		push r24
 645 030c 0E94 0000 		call rprintf
 646               	.LM79:
 647 0310 8091 0000 		lds r24,active_channels
 648 0314 0F90      		pop __tmp_reg__
 649 0316 0F90      		pop __tmp_reg__
 650 0318 0F90      		pop __tmp_reg__
 651 031a 0F90      		pop __tmp_reg__
 652 031c 83FF      		sbrs r24,3
 653 031e 00C0      		rjmp .L73
 654 0320 1F92      		push __zero_reg__
 655 0322 1F92      		push __zero_reg__
 656 0324 9F92      		push r9
 657 0326 8F92      		push r8
 658 0328 00C0      		rjmp .L159
 659               	.L73:
 660               	.LM80:
 661 032a 1F92      		push __zero_reg__
 662 032c 1F92      		push __zero_reg__
 663 032e BF92      		push r11
 664 0330 AF92      		push r10
 665               	.L159:
 666 0332 0E94 0000 		call rprintf
 667 0336 0F90      		pop __tmp_reg__
 668 0338 0F90      		pop __tmp_reg__
 669 033a 0F90      		pop __tmp_reg__
 670 033c 0F90      		pop __tmp_reg__
 671               	.LM81:
 672 033e 1F92      		push __zero_reg__
 673 0340 1F92      		push __zero_reg__
 674 0342 80E0      		ldi r24,lo8(.LC19)
 675 0344 90E0      		ldi r25,hi8(.LC19)
 676 0346 9F93      		push r25
 677 0348 8F93      		push r24
 678 034a 0E94 0000 		call rprintf
 679               	.LM82:
 680 034e 8091 0000 		lds r24,active_channels
 681 0352 0F90      		pop __tmp_reg__
 682 0354 0F90      		pop __tmp_reg__
 683 0356 0F90      		pop __tmp_reg__
 684 0358 0F90      		pop __tmp_reg__
 685 035a 82FF      		sbrs r24,2
 686 035c 00C0      		rjmp .L76
 687 035e 1F92      		push __zero_reg__
 688 0360 1F92      		push __zero_reg__
 689 0362 9F92      		push r9
 690 0364 8F92      		push r8
 691 0366 00C0      		rjmp .L160
 692               	.L76:
 693               	.LM83:
 694 0368 1F92      		push __zero_reg__
 695 036a 1F92      		push __zero_reg__
 696 036c BF92      		push r11
 697 036e AF92      		push r10
 698               	.L160:
 699 0370 0E94 0000 		call rprintf
 700 0374 0F90      		pop __tmp_reg__
 701 0376 0F90      		pop __tmp_reg__
 702 0378 0F90      		pop __tmp_reg__
 703 037a 0F90      		pop __tmp_reg__
 704               	.LM84:
 705 037c 1F92      		push __zero_reg__
 706 037e 1F92      		push __zero_reg__
 707 0380 80E0      		ldi r24,lo8(.LC20)
 708 0382 90E0      		ldi r25,hi8(.LC20)
 709 0384 9F93      		push r25
 710 0386 8F93      		push r24
 711 0388 0E94 0000 		call rprintf
 712               	.LM85:
 713 038c 8091 0000 		lds r24,active_channels
 714 0390 0F90      		pop __tmp_reg__
 715 0392 0F90      		pop __tmp_reg__
 716 0394 0F90      		pop __tmp_reg__
 717 0396 0F90      		pop __tmp_reg__
 718 0398 81FF      		sbrs r24,1
 719 039a 00C0      		rjmp .L79
 720 039c 1F92      		push __zero_reg__
 721 039e 1F92      		push __zero_reg__
 722 03a0 9F92      		push r9
 723 03a2 8F92      		push r8
 724 03a4 00C0      		rjmp .L161
 725               	.L79:
 726               	.LM86:
 727 03a6 1F92      		push __zero_reg__
 728 03a8 1F92      		push __zero_reg__
 729 03aa BF92      		push r11
 730 03ac AF92      		push r10
 731               	.L161:
 732 03ae 0E94 0000 		call rprintf
 733 03b2 0F90      		pop __tmp_reg__
 734 03b4 0F90      		pop __tmp_reg__
 735 03b6 0F90      		pop __tmp_reg__
 736 03b8 0F90      		pop __tmp_reg__
 737               	.LM87:
 738 03ba 1F92      		push __zero_reg__
 739 03bc 1F92      		push __zero_reg__
 740 03be 80E0      		ldi r24,lo8(.LC21)
 741 03c0 90E0      		ldi r25,hi8(.LC21)
 742 03c2 9F93      		push r25
 743 03c4 8F93      		push r24
 744 03c6 0E94 0000 		call rprintf
 745               	.LM88:
 746 03ca 8091 0000 		lds r24,active_channels
 747 03ce 0F90      		pop __tmp_reg__
 748 03d0 0F90      		pop __tmp_reg__
 749 03d2 0F90      		pop __tmp_reg__
 750 03d4 0F90      		pop __tmp_reg__
 751 03d6 80FF      		sbrs r24,0
 752 03d8 00C0      		rjmp .L82
 753 03da 1F92      		push __zero_reg__
 754 03dc 1F92      		push __zero_reg__
 755 03de 9F92      		push r9
 756 03e0 8F92      		push r8
 757 03e2 00C0      		rjmp .L162
 758               	.L82:
 759               	.LM89:
 760 03e4 1F92      		push __zero_reg__
 761 03e6 1F92      		push __zero_reg__
 762 03e8 BF92      		push r11
 763 03ea AF92      		push r10
 764               	.L162:
 765 03ec 0E94 0000 		call rprintf
 766 03f0 0F90      		pop __tmp_reg__
 767 03f2 0F90      		pop __tmp_reg__
 768 03f4 0F90      		pop __tmp_reg__
 769 03f6 0F90      		pop __tmp_reg__
 770               	.LM90:
 771 03f8 1F92      		push __zero_reg__
 772 03fa 1F92      		push __zero_reg__
 773 03fc 80E0      		ldi r24,lo8(.LC22)
 774 03fe 90E0      		ldi r25,hi8(.LC22)
 775 0400 9F93      		push r25
 776 0402 8F93      		push r24
 777 0404 0E94 0000 		call rprintf
 778               	.LM91:
 779 0408 1F92      		push __zero_reg__
 780 040a 1F92      		push __zero_reg__
 781 040c 7F92      		push r7
 782 040e 6F92      		push r6
 783 0410 0E94 0000 		call rprintf
 784 0414 8DB7      		in r24,__SP_L__
 785 0416 9EB7      		in r25,__SP_H__
 786 0418 0896      		adiw r24,8
 787 041a 0FB6      		in __tmp_reg__,__SREG__
 788 041c F894      		cli
 789 041e 9EBF      		out __SP_H__,r25
 790 0420 0FBE      		out __SREG__,__tmp_reg__
 791 0422 8DBF      		out __SP_L__,r24
 792               	.L85:
 793               	.LBB64:
 794               	.LBB65:
 795               	.LM92:
 796 0424 8091 C000 		lds r24,192
 797 0428 87FF      		sbrs r24,7
 798 042a 00C0      		rjmp .L85
 799               	.LM93:
 800 042c 8091 C600 		lds r24,198
 801               	.LBE65:
 802               	.LBE64:
 803               	.LM94:
 804 0430 8133      		cpi r24,lo8(49)
 805 0432 01F4      		brne .L87
 806               	.LM95:
 807 0434 8091 0000 		lds r24,active_channels
 808 0438 90E2      		ldi r25,lo8(32)
 809 043a 00C0      		rjmp .L156
 810               	.L87:
 811               	.LM96:
 812 043c 8233      		cpi r24,lo8(50)
 813 043e 01F4      		brne .L89
 814               	.LM97:
 815 0440 8091 0000 		lds r24,active_channels
 816 0444 90E1      		ldi r25,lo8(16)
 817               	.L156:
 818 0446 8927      		eor r24,r25
 819 0448 8093 0000 		sts active_channels,r24
 820 044c 00C0      		rjmp .L164
 821               	.L89:
 822               	.LM98:
 823 044e 8333      		cpi r24,lo8(51)
 824 0450 01F4      		brne .L91
 825               	.LM99:
 826 0452 8091 0000 		lds r24,active_channels
 827 0456 98E0      		ldi r25,lo8(8)
 828 0458 00C0      		rjmp .L156
 829               	.L91:
 830               	.LM100:
 831 045a 8433      		cpi r24,lo8(52)
 832 045c 01F4      		brne .L93
 833               	.LM101:
 834 045e 8091 0000 		lds r24,active_channels
 835 0462 94E0      		ldi r25,lo8(4)
 836 0464 00C0      		rjmp .L156
 837               	.L93:
 838               	.LM102:
 839 0466 8533      		cpi r24,lo8(53)
 840 0468 01F4      		brne .L95
 841               	.LM103:
 842 046a 8091 0000 		lds r24,active_channels
 843 046e 92E0      		ldi r25,lo8(2)
 844 0470 00C0      		rjmp .L156
 845               	.L95:
 846               	.LM104:
 847 0472 8633      		cpi r24,lo8(54)
 848 0474 01F4      		brne .L97
 849               	.LM105:
 850 0476 8091 0000 		lds r24,active_channels
 851 047a 91E0      		ldi r25,lo8(1)
 852 047c 00C0      		rjmp .L156
 853               	.L97:
 854               	.LM106:
 855 047e 8837      		cpi r24,lo8(120)
 856 0480 01F0      		breq .+2
 857 0482 00C0      		rjmp .L164
 858               	.LM107:
 859 0484 6091 0000 		lds r22,active_channels
 860 0488 83E0      		ldi r24,lo8(3)
 861 048a 90E0      		ldi r25,hi8(3)
 862 048c 00C0      		rjmp .L152
 863               	.L65:
 864               	.LM108:
 865 048e 8233      		cpi r24,lo8(50)
 866 0490 01F4      		brne .L100
 867               	.LM109:
 868 0492 9091 0000 		lds r25,asc
 869 0496 81E0      		ldi r24,lo8(1)
 870 0498 9827      		eor r25,r24
 871 049a 9093 0000 		sts asc,r25
 872               	.LM110:
 873 049e 9923      		tst r25
 874 04a0 01F4      		brne .L102
 875 04a2 1E7F      		andi r17,lo8(-2)
 876 04a4 00C0      		rjmp .L163
 877               	.L102:
 878               	.LM111:
 879 04a6 9130      		cpi r25,lo8(1)
 880 04a8 01F0      		breq .+2
 881 04aa 00C0      		rjmp .L163
 882 04ac 1160      		ori r17,lo8(1)
 883 04ae 00C0      		rjmp .L163
 884               	.L100:
 885               	.LM112:
 886 04b0 8333      		cpi r24,lo8(51)
 887 04b2 01F4      		brne .L105
 888               	.LM113:
 889 04b4 9091 0000 		lds r25,auto_run
 890 04b8 81E0      		ldi r24,lo8(1)
 891 04ba 9827      		eor r25,r24
 892 04bc 9093 0000 		sts auto_run,r25
 893               	.LM114:
 894 04c0 9923      		tst r25
 895 04c2 01F4      		brne .L107
 896 04c4 1D7F      		andi r17,lo8(-3)
 897 04c6 00C0      		rjmp .L163
 898               	.L107:
 899               	.LM115:
 900 04c8 9130      		cpi r25,lo8(1)
 901 04ca 01F0      		breq .+2
 902 04cc 00C0      		rjmp .L163
 903 04ce 1260      		ori r17,lo8(2)
 904 04d0 00C0      		rjmp .L163
 905               	.L105:
 906               	.LM116:
 907 04d2 8433      		cpi r24,lo8(52)
 908 04d4 01F0      		breq .+2
 909 04d6 00C0      		rjmp .L110
 910               	.LM117:
 911 04d8 1F92      		push __zero_reg__
 912 04da 1F92      		push __zero_reg__
 913 04dc 80E0      		ldi r24,lo8(.LC24)
 914 04de 90E0      		ldi r25,hi8(.LC24)
 915 04e0 9F93      		push r25
 916 04e2 8F93      		push r24
 917 04e4 0E94 0000 		call rprintf
 918               	.LM118:
 919 04e8 1F92      		push __zero_reg__
 920 04ea 1F92      		push __zero_reg__
 921 04ec 80E0      		ldi r24,lo8(.LC25)
 922 04ee 90E0      		ldi r25,hi8(.LC25)
 923 04f0 9F93      		push r25
 924 04f2 8F93      		push r24
 925 04f4 0E94 0000 		call rprintf
 926               	.LM119:
 927 04f8 1F92      		push __zero_reg__
 928 04fa 1F92      		push __zero_reg__
 929 04fc 80E0      		ldi r24,lo8(.LC26)
 930 04fe 90E0      		ldi r25,hi8(.LC26)
 931 0500 9F93      		push r25
 932 0502 8F93      		push r24
 933 0504 0E94 0000 		call rprintf
 934               	.LM120:
 935 0508 1F92      		push __zero_reg__
 936 050a 1F92      		push __zero_reg__
 937 050c 80E0      		ldi r24,lo8(.LC27)
 938 050e 90E0      		ldi r25,hi8(.LC27)
 939 0510 9F93      		push r25
 940 0512 8F93      		push r24
 941 0514 0E94 0000 		call rprintf
 942               	.LM121:
 943 0518 1F92      		push __zero_reg__
 944 051a 1F92      		push __zero_reg__
 945 051c 80E0      		ldi r24,lo8(.LC28)
 946 051e 90E0      		ldi r25,hi8(.LC28)
 947 0520 9F93      		push r25
 948 0522 8F93      		push r24
 949 0524 0E94 0000 		call rprintf
 950 0528 8DB7      		in r24,__SP_L__
 951 052a 9EB7      		in r25,__SP_H__
 952 052c 4496      		adiw r24,20
 953 052e 0FB6      		in __tmp_reg__,__SREG__
 954 0530 F894      		cli
 955 0532 9EBF      		out __SP_H__,r25
 956 0534 0FBE      		out __SREG__,__tmp_reg__
 957 0536 8DBF      		out __SP_L__,r24
 958               	.L165:
 959               	.LBB66:
 960               	.LBB67:
 961               	.LM122:
 962 0538 8091 C000 		lds r24,192
 963 053c 87FF      		sbrs r24,7
 964 053e 00C0      		rjmp .L165
 965               	.LM123:
 966 0540 8091 C600 		lds r24,198
 967               	.LBE67:
 968               	.LBE66:
 969               	.LM124:
 970 0544 8133      		cpi r24,lo8(49)
 971 0546 01F4      		brne .L114
 972               	.LM125:
 973 0548 85B1      		in r24,37-0x20
 974 054a 8C7F      		andi r24,lo8(-4)
 975 054c 85B9      		out 37-0x20,r24
 976               	.LM126:
 977 054e 137F      		andi r17,lo8(-13)
 978 0550 00C0      		rjmp .L163
 979               	.L114:
 980               	.LM127:
 981 0552 8233      		cpi r24,lo8(50)
 982 0554 01F4      		brne .L116
 983               	.LM128:
 984 0556 289A      		sbi 37-0x20,0
 985               	.LM129:
 986 0558 2998      		cbi 37-0x20,1
 987               	.LM130:
 988 055a 177F      		andi r17,lo8(-9)
 989               	.LM131:
 990 055c 1460      		ori r17,lo8(4)
 991 055e 00C0      		rjmp .L163
 992               	.L116:
 993               	.LM132:
 994 0560 8333      		cpi r24,lo8(51)
 995 0562 01F4      		brne .L118
 996               	.LM133:
 997 0564 2898      		cbi 37-0x20,0
 998               	.LM134:
 999 0566 299A      		sbi 37-0x20,1
 1000               	.LM135:
 1001 0568 1B7F      		andi r17,lo8(-5)
 1002               	.LM136:
 1003 056a 1860      		ori r17,lo8(8)
 1004 056c 00C0      		rjmp .L163
 1005               	.L118:
 1006               	.LM137:
 1007 056e 8433      		cpi r24,lo8(52)
 1008 0570 01F4      		brne .L165
 1009               	.LM138:
 1010 0572 85B1      		in r24,37-0x20
 1011 0574 8360      		ori r24,lo8(3)
 1012 0576 85B9      		out 37-0x20,r24
 1013               	.LM139:
 1014 0578 1C60      		ori r17,lo8(12)
 1015 057a 00C0      		rjmp .L163
 1016               	.L110:
 1017               	.LM140:
 1018 057c 8533      		cpi r24,lo8(53)
 1019 057e 01F0      		breq .+2
 1020 0580 00C0      		rjmp .L121
 1021               	.LM141:
 1022 0582 1F92      		push __zero_reg__
 1023 0584 1F92      		push __zero_reg__
 1024 0586 5F92      		push r5
 1025 0588 4F92      		push r4
 1026 058a 0E94 0000 		call rprintf
 1027 058e 0F90      		pop __tmp_reg__
 1028 0590 0F90      		pop __tmp_reg__
 1029 0592 0F90      		pop __tmp_reg__
 1030 0594 0F90      		pop __tmp_reg__
 1031               	.LM142:
 1032 0596 40E0      		ldi r20,lo8(.LC30)
 1033 0598 C42E      		mov r12,r20
 1034 059a 40E0      		ldi r20,hi8(.LC30)
 1035 059c D42E      		mov r13,r20
 1036               	.LM143:
 1037 059e 30E0      		ldi r19,lo8(.LC31)
 1038 05a0 E32E      		mov r14,r19
 1039 05a2 30E0      		ldi r19,hi8(.LC31)
 1040 05a4 F32E      		mov r15,r19
 1041               	.L123:
 1042               	.LM144:
 1043 05a6 DF93      		push r29
 1044 05a8 CF93      		push r28
 1045 05aa DF92      		push r13
 1046 05ac CF92      		push r12
 1047 05ae 0E94 0000 		call rprintf
 1048 05b2 0F90      		pop __tmp_reg__
 1049 05b4 0F90      		pop __tmp_reg__
 1050 05b6 0F90      		pop __tmp_reg__
 1051 05b8 0F90      		pop __tmp_reg__
 1052               	.L124:
 1053               	.LBB68:
 1054               	.LBB69:
 1055               	.LM145:
 1056 05ba 8091 C000 		lds r24,192
 1057 05be 87FF      		sbrs r24,7
 1058 05c0 00C0      		rjmp .L124
 1059               	.LM146:
 1060 05c2 8091 C600 		lds r24,198
 1061               	.LBE69:
 1062               	.LBE68:
 1063               	.LM147:
 1064 05c6 8936      		cpi r24,lo8(105)
 1065 05c8 01F4      		brne .L126
 1066 05ca 2196      		adiw r28,1
 1067 05cc 00C0      		rjmp .L128
 1068               	.L126:
 1069               	.LM148:
 1070 05ce 8436      		cpi r24,lo8(100)
 1071 05d0 01F4      		brne .L129
 1072 05d2 2197      		sbiw r28,1
 1073 05d4 00C0      		rjmp .L128
 1074               	.L129:
 1075               	.LM149:
 1076 05d6 8837      		cpi r24,lo8(120)
 1077 05d8 01F0      		breq .L131
 1078               	.L128:
 1079               	.LM150:
 1080 05da CA30      		cpi r28,10
 1081 05dc D105      		cpc r29,__zero_reg__
 1082 05de 04F4      		brge .L132
 1083 05e0 CAE0      		ldi r28,lo8(10)
 1084 05e2 D0E0      		ldi r29,hi8(10)
 1085               	.L132:
 1086               	.LM151:
 1087 05e4 1F92      		push __zero_reg__
 1088 05e6 1F92      		push __zero_reg__
 1089 05e8 FF92      		push r15
 1090 05ea EF92      		push r14
 1091 05ec 0E94 0000 		call rprintf
 1092               	.LM152:
 1093 05f0 0F90      		pop __tmp_reg__
 1094 05f2 0F90      		pop __tmp_reg__
 1095 05f4 0F90      		pop __tmp_reg__
 1096 05f6 0F90      		pop __tmp_reg__
 1097 05f8 00C0      		rjmp .L123
 1098               	.L131:
 1099               	.LM153:
 1100 05fa BE01      		movw r22,r28
 1101 05fc 8827      		clr r24
 1102 05fe 77FD      		sbrc r23,7
 1103 0600 8095      		com r24
 1104 0602 982F      		mov r25,r24
 1105 0604 0E94 0000 		call __floatsisf
 1106 0608 6093 0000 		sts freq,r22
 1107 060c 7093 0000 		sts (freq)+1,r23
 1108 0610 8093 0000 		sts (freq)+2,r24
 1109 0614 9093 0000 		sts (freq)+3,r25
 1110               	.LM154:
 1111 0618 60E0      		ldi r22,lo8(0)
 1112 061a 81E0      		ldi r24,lo8(1)
 1113 061c 90E0      		ldi r25,hi8(1)
 1114 061e 0E94 0000 		call EEPROM_write
 1115               	.LM155:
 1116 0622 6C2F      		mov r22,r28
 1117 0624 80E0      		ldi r24,lo8(0)
 1118 0626 90E0      		ldi r25,hi8(0)
 1119               	.L152:
 1120 0628 0E94 0000 		call EEPROM_write
 1121 062c 00C0      		rjmp .L163
 1122               	.L121:
 1123               	.LM156:
 1124 062e 8933      		cpi r24,lo8(57)
 1125 0630 01F0      		breq .+2
 1126 0632 00C0      		rjmp .L163
 1127               	.LM157:
 1128 0634 612F      		mov r22,r17
 1129 0636 82E0      		ldi r24,lo8(2)
 1130 0638 90E0      		ldi r25,hi8(2)
 1131 063a 0E94 0000 		call EEPROM_write
 1132               	.LM158:
 1133 063e 1F92      		push __zero_reg__
 1134 0640 1F92      		push __zero_reg__
 1135 0642 80E0      		ldi r24,lo8(.LC32)
 1136 0644 90E0      		ldi r25,hi8(.LC32)
 1137 0646 9F93      		push r25
 1138 0648 8F93      		push r24
 1139 064a 0E94 0000 		call rprintf
 1140               	.LM159:
 1141 064e 2D9A      		sbi 37-0x20,5
 1142 0650 0F90      		pop __tmp_reg__
 1143 0652 0F90      		pop __tmp_reg__
 1144 0654 0F90      		pop __tmp_reg__
 1145 0656 0F90      		pop __tmp_reg__
 1146               	/* epilogue: frame size=0 */
 1147 0658 DF91      		pop r29
 1148 065a CF91      		pop r28
 1149 065c 1F91      		pop r17
 1150 065e FF90      		pop r15
 1151 0660 EF90      		pop r14
 1152 0662 DF90      		pop r13
 1153 0664 CF90      		pop r12
 1154 0666 BF90      		pop r11
 1155 0668 AF90      		pop r10
 1156 066a 9F90      		pop r9
 1157 066c 8F90      		pop r8
 1158 066e 7F90      		pop r7
 1159 0670 6F90      		pop r6
 1160 0672 5F90      		pop r5
 1161 0674 4F90      		pop r4
 1162 0676 3F90      		pop r3
 1163 0678 2F90      		pop r2
 1164 067a 0895      		ret
 1165               	/* epilogue end (size=18) */
 1166               	/* function config_menu size 740 (705) */
 1167               	.LFE14:
 1169               		.data
 1170               	.LC33:
 1171 026e 0D0A 0A54 		.string	"\r\n\nToo much data.  Please lower your sample frequency\r\n\n"
 1171      6F6F 206D 
 1171      7563 6820 
 1171      6461 7461 
 1171      2E20 2050 
 1172               		.text
 1173               	.global	get_adc
 1175               	get_adc:
 1176               	.LFB11:
 1177               	.LM160:
 1178               	/* prologue: frame size=0 */
 1179 067c 0F93      		push r16
 1180 067e 1F93      		push r17
 1181 0680 CF93      		push r28
 1182 0682 DF93      		push r29
 1183               	/* prologue end (size=4) */
 1184               	.LM161:
 1185 0684 1092 0000 		sts (x_accel)+1,__zero_reg__
 1186 0688 1092 0000 		sts x_accel,__zero_reg__
 1187               	.LM162:
 1188 068c 1092 0000 		sts (y_accel)+1,__zero_reg__
 1189 0690 1092 0000 		sts y_accel,__zero_reg__
 1190               	.LM163:
 1191 0694 1092 0000 		sts (z_accel)+1,__zero_reg__
 1192 0698 1092 0000 		sts z_accel,__zero_reg__
 1193               	.LM164:
 1194 069c 1092 0000 		sts (pitch)+1,__zero_reg__
 1195 06a0 1092 0000 		sts pitch,__zero_reg__
 1196               	.LM165:
 1197 06a4 1092 0000 		sts (roll)+1,__zero_reg__
 1198 06a8 1092 0000 		sts roll,__zero_reg__
 1199               	.LM166:
 1200 06ac 1092 0000 		sts (yaw)+1,__zero_reg__
 1201 06b0 1092 0000 		sts yaw,__zero_reg__
 1202               	.LM167:
 1203 06b4 2091 0000 		lds r18,freq
 1204 06b8 3091 0000 		lds r19,(freq)+1
 1205 06bc 4091 0000 		lds r20,(freq)+2
 1206 06c0 5091 0000 		lds r21,(freq)+3
 1207 06c4 60E0      		ldi r22,lo8(0x3f800000)
 1208 06c6 70E0      		ldi r23,hi8(0x3f800000)
 1209 06c8 80E8      		ldi r24,hlo8(0x3f800000)
 1210 06ca 9FE3      		ldi r25,hhi8(0x3f800000)
 1211 06cc 0E94 0000 		call __divsf3
 1212 06d0 25E9      		ldi r18,lo8(0x37d6bf95)
 1213 06d2 3FEB      		ldi r19,hi8(0x37d6bf95)
 1214 06d4 46ED      		ldi r20,hlo8(0x37d6bf95)
 1215 06d6 57E3      		ldi r21,hhi8(0x37d6bf95)
 1216 06d8 0E94 0000 		call __divsf3
 1217 06dc 0E94 0000 		call __fixsfsi
 1218 06e0 7093 0000 		sts (tmr_cnt)+1,r23
 1219 06e4 6093 0000 		sts tmr_cnt,r22
 1220 06e8 C0E0      		ldi r28,lo8(0)
 1221 06ea D0E0      		ldi r29,hi8(0)
 1222               	.LVL13:
 1223               	.LM168:
 1224 06ec 00E0      		ldi r16,lo8(.LC30)
 1225 06ee 10E0      		ldi r17,hi8(.LC30)
 1226               	.LVL14:
 1227               	.L348:
 1228               	.LM169:
 1229 06f0 B09A      		sbi 54-0x20,0
 1230               	.LM170:
 1231 06f2 8091 0000 		lds r24,tmr_cnt
 1232 06f6 9091 0000 		lds r25,(tmr_cnt)+1
 1233               	.LVL15:
 1234 06fa 9095      		com r25
 1235 06fc 8195      		neg r24
 1236 06fe 9F4F      		sbci r25,lo8(-1)
 1237 0700 9093 8500 		sts (132)+1,r25
 1238 0704 8093 8400 		sts 132,r24
 1239               	.LM171:
 1240 0708 1092 0000 		sts (x_accel)+1,__zero_reg__
 1241 070c 1092 0000 		sts x_accel,__zero_reg__
 1242 0710 1092 0000 		sts (y_accel)+1,__zero_reg__
 1243 0714 1092 0000 		sts y_accel,__zero_reg__
 1244 0718 1092 0000 		sts (z_accel)+1,__zero_reg__
 1245 071c 1092 0000 		sts z_accel,__zero_reg__
 1246               	.LM172:
 1247 0720 1092 0000 		sts (pitch)+1,__zero_reg__
 1248 0724 1092 0000 		sts pitch,__zero_reg__
 1249 0728 1092 0000 		sts (roll)+1,__zero_reg__
 1250 072c 1092 0000 		sts roll,__zero_reg__
 1251 0730 1092 0000 		sts (yaw)+1,__zero_reg__
 1252 0734 1092 0000 		sts yaw,__zero_reg__
 1253               	.L168:
 1254               	.LBB70:
 1255               	.LBB71:
 1256               	.LM173:
 1257 0738 8091 C000 		lds r24,192
 1258 073c 85FF      		sbrs r24,5
 1259 073e 00C0      		rjmp .L168
 1260               	.LM174:
 1261 0740 81E4      		ldi r24,lo8(65)
 1262 0742 8093 C600 		sts 198,r24
 1263               	.LBE71:
 1264               	.LBE70:
 1265               	.LM175:
 1266 0746 8091 0000 		lds r24,asc
 1267 074a 8823      		tst r24
 1268 074c 01F4      		brne .L170
 1269               	.LM176:
 1270 074e 2D2F      		mov r18,r29
 1271 0750 3327      		clr r19
 1272               	.L172:
 1273               	.LBB72:
 1274               	.LBB73:
 1275               	.LM177:
 1276 0752 8091 C000 		lds r24,192
 1277 0756 85FF      		sbrs r24,5
 1278 0758 00C0      		rjmp .L172
 1279               	.LM178:
 1280 075a 2093 C600 		sts 198,r18
 1281               	.L174:
 1282               	.LBE73:
 1283               	.LBE72:
 1284               	.LBB74:
 1285               	.LBB75:
 1286               	.LM179:
 1287 075e 8091 C000 		lds r24,192
 1288 0762 85FF      		sbrs r24,5
 1289 0764 00C0      		rjmp .L174
 1290               	.LM180:
 1291 0766 C093 C600 		sts 198,r28
 1292 076a 00C0      		rjmp .L176
 1293               	.L170:
 1294               	.LBE75:
 1295               	.LBE74:
 1296               	.LM181:
 1297 076c 8130      		cpi r24,lo8(1)
 1298 076e 01F4      		brne .L176
 1299               	.L276:
 1300               	.LBB76:
 1301               	.LBB77:
 1302               	.LM182:
 1303 0770 8091 C000 		lds r24,192
 1304 0774 85FF      		sbrs r24,5
 1305 0776 00C0      		rjmp .L276
 1306               	.LM183:
 1307 0778 89E0      		ldi r24,lo8(9)
 1308 077a 8093 C600 		sts 198,r24
 1309               	.LBE77:
 1310               	.LBE76:
 1311               	.LM184:
 1312 077e DF93      		push r29
 1313 0780 CF93      		push r28
 1314 0782 1F93      		push r17
 1315 0784 0F93      		push r16
 1316 0786 0E94 0000 		call rprintf
 1317               	.LVL16:
 1318 078a 0F90      		pop __tmp_reg__
 1319 078c 0F90      		pop __tmp_reg__
 1320 078e 0F90      		pop __tmp_reg__
 1321 0790 0F90      		pop __tmp_reg__
 1322               	.L179:
 1323               	.LBB78:
 1324               	.LBB79:
 1325               	.LM185:
 1326 0792 8091 C000 		lds r24,192
 1327 0796 85FF      		sbrs r24,5
 1328 0798 00C0      		rjmp .L179
 1329               	.LM186:
 1330 079a 89E0      		ldi r24,lo8(9)
 1331 079c 8093 C600 		sts 198,r24
 1332               	.LVL17:
 1333               	.L176:
 1334               	.LBE79:
 1335               	.LBE78:
 1336               	.LM187:
 1337 07a0 8091 0000 		lds r24,active_channels
 1338 07a4 85FF      		sbrs r24,5
 1339 07a6 00C0      		rjmp .L181
 1340               	.LM188:
 1341 07a8 80E4      		ldi r24,lo8(64)
 1342 07aa 8093 7C00 		sts 124,r24
 1343               	.LM189:
 1344 07ae 86EC      		ldi r24,lo8(-58)
 1345 07b0 8093 7A00 		sts 122,r24
 1346               	.L183:
 1347               	.LM190:
 1348 07b4 8091 7A00 		lds r24,122
 1349 07b8 86FD      		sbrc r24,6
 1350 07ba 00C0      		rjmp .L183
 1351               	.LM191:
 1352 07bc 2091 7800 		lds r18,120
 1353               	.LVL18:
 1354               	.LM192:
 1355 07c0 8091 7900 		lds r24,121
 1356               	.LM193:
 1357 07c4 90E0      		ldi r25,lo8(0)
 1358 07c6 8370      		andi r24,lo8(3)
 1359 07c8 9070      		andi r25,hi8(3)
 1360 07ca 582F      		mov r21,r24
 1361 07cc 4427      		clr r20
 1362 07ce 30E0      		ldi r19,lo8(0)
 1363 07d0 422B      		or r20,r18
 1364 07d2 532B      		or r21,r19
 1365 07d4 5093 0000 		sts (x_accel)+1,r21
 1366 07d8 4093 0000 		sts x_accel,r20
 1367               	.LM194:
 1368 07dc 8091 0000 		lds r24,asc
 1369 07e0 8823      		tst r24
 1370 07e2 01F4      		brne .L185
 1371               	.LM195:
 1372 07e4 252F      		mov r18,r21
 1373 07e6 3327      		clr r19
 1374               	.LVL19:
 1375               	.L187:
 1376               	.LBB80:
 1377               	.LBB81:
 1378               	.LM196:
 1379 07e8 8091 C000 		lds r24,192
 1380 07ec 85FF      		sbrs r24,5
 1381 07ee 00C0      		rjmp .L187
 1382               	.LM197:
 1383 07f0 2093 C600 		sts 198,r18
 1384               	.L189:
 1385               	.LBE81:
 1386               	.LBE80:
 1387               	.LBB82:
 1388               	.LBB83:
 1389               	.LM198:
 1390 07f4 8091 C000 		lds r24,192
 1391 07f8 85FF      		sbrs r24,5
 1392 07fa 00C0      		rjmp .L189
 1393               	.LM199:
 1394 07fc 4093 C600 		sts 198,r20
 1395 0800 00C0      		rjmp .L181
 1396               	.LVL20:
 1397               	.L185:
 1398               	.LBE83:
 1399               	.LBE82:
 1400               	.LM200:
 1401 0802 8130      		cpi r24,lo8(1)
 1402 0804 01F4      		brne .L181
 1403               	.LM201:
 1404 0806 5F93      		push r21
 1405 0808 4F93      		push r20
 1406 080a 1F93      		push r17
 1407 080c 0F93      		push r16
 1408 080e 0E94 0000 		call rprintf
 1409 0812 0F90      		pop __tmp_reg__
 1410 0814 0F90      		pop __tmp_reg__
 1411 0816 0F90      		pop __tmp_reg__
 1412 0818 0F90      		pop __tmp_reg__
 1413               	.L192:
 1414               	.LBB84:
 1415               	.LBB85:
 1416               	.LM202:
 1417 081a 8091 C000 		lds r24,192
 1418 081e 85FF      		sbrs r24,5
 1419 0820 00C0      		rjmp .L192
 1420               	.LM203:
 1421 0822 89E0      		ldi r24,lo8(9)
 1422 0824 8093 C600 		sts 198,r24
 1423               	.LVL21:
 1424               	.L181:
 1425               	.LBE85:
 1426               	.LBE84:
 1427               	.LM204:
 1428 0828 8091 0000 		lds r24,active_channels
 1429 082c 84FF      		sbrs r24,4
 1430 082e 00C0      		rjmp .L194
 1431               	.LM205:
 1432 0830 81E4      		ldi r24,lo8(65)
 1433 0832 8093 7C00 		sts 124,r24
 1434               	.LM206:
 1435 0836 86EC      		ldi r24,lo8(-58)
 1436 0838 8093 7A00 		sts 122,r24
 1437               	.L196:
 1438               	.LM207:
 1439 083c 8091 7A00 		lds r24,122
 1440 0840 86FD      		sbrc r24,6
 1441 0842 00C0      		rjmp .L196
 1442               	.LM208:
 1443 0844 2091 7800 		lds r18,120
 1444               	.LVL22:
 1445               	.LM209:
 1446 0848 8091 7900 		lds r24,121
 1447               	.LM210:
 1448 084c 90E0      		ldi r25,lo8(0)
 1449 084e 8370      		andi r24,lo8(3)
 1450 0850 9070      		andi r25,hi8(3)
 1451 0852 582F      		mov r21,r24
 1452 0854 4427      		clr r20
 1453 0856 30E0      		ldi r19,lo8(0)
 1454 0858 422B      		or r20,r18
 1455 085a 532B      		or r21,r19
 1456 085c 5093 0000 		sts (y_accel)+1,r21
 1457 0860 4093 0000 		sts y_accel,r20
 1458               	.LM211:
 1459 0864 8091 0000 		lds r24,asc
 1460 0868 8823      		tst r24
 1461 086a 01F4      		brne .L198
 1462               	.LM212:
 1463 086c 252F      		mov r18,r21
 1464 086e 3327      		clr r19
 1465               	.LVL23:
 1466               	.L200:
 1467               	.LBB86:
 1468               	.LBB87:
 1469               	.LM213:
 1470 0870 8091 C000 		lds r24,192
 1471 0874 85FF      		sbrs r24,5
 1472 0876 00C0      		rjmp .L200
 1473               	.LM214:
 1474 0878 2093 C600 		sts 198,r18
 1475               	.L202:
 1476               	.LBE87:
 1477               	.LBE86:
 1478               	.LBB88:
 1479               	.LBB89:
 1480               	.LM215:
 1481 087c 8091 C000 		lds r24,192
 1482 0880 85FF      		sbrs r24,5
 1483 0882 00C0      		rjmp .L202
 1484               	.LM216:
 1485 0884 4093 C600 		sts 198,r20
 1486 0888 00C0      		rjmp .L194
 1487               	.LVL24:
 1488               	.L198:
 1489               	.LBE89:
 1490               	.LBE88:
 1491               	.LM217:
 1492 088a 8130      		cpi r24,lo8(1)
 1493 088c 01F4      		brne .L194
 1494               	.LM218:
 1495 088e 5F93      		push r21
 1496 0890 4F93      		push r20
 1497 0892 1F93      		push r17
 1498 0894 0F93      		push r16
 1499 0896 0E94 0000 		call rprintf
 1500 089a 0F90      		pop __tmp_reg__
 1501 089c 0F90      		pop __tmp_reg__
 1502 089e 0F90      		pop __tmp_reg__
 1503 08a0 0F90      		pop __tmp_reg__
 1504               	.L205:
 1505               	.LBB90:
 1506               	.LBB91:
 1507               	.LM219:
 1508 08a2 8091 C000 		lds r24,192
 1509 08a6 85FF      		sbrs r24,5
 1510 08a8 00C0      		rjmp .L205
 1511               	.LM220:
 1512 08aa 89E0      		ldi r24,lo8(9)
 1513 08ac 8093 C600 		sts 198,r24
 1514               	.LVL25:
 1515               	.L194:
 1516               	.LBE91:
 1517               	.LBE90:
 1518               	.LM221:
 1519 08b0 8091 0000 		lds r24,active_channels
 1520 08b4 83FF      		sbrs r24,3
 1521 08b6 00C0      		rjmp .L207
 1522               	.LM222:
 1523 08b8 82E4      		ldi r24,lo8(66)
 1524 08ba 8093 7C00 		sts 124,r24
 1525               	.LM223:
 1526 08be 86EC      		ldi r24,lo8(-58)
 1527 08c0 8093 7A00 		sts 122,r24
 1528               	.L209:
 1529               	.LM224:
 1530 08c4 8091 7A00 		lds r24,122
 1531 08c8 86FD      		sbrc r24,6
 1532 08ca 00C0      		rjmp .L209
 1533               	.LM225:
 1534 08cc 2091 7800 		lds r18,120
 1535               	.LVL26:
 1536               	.LM226:
 1537 08d0 8091 7900 		lds r24,121
 1538               	.LM227:
 1539 08d4 90E0      		ldi r25,lo8(0)
 1540 08d6 8370      		andi r24,lo8(3)
 1541 08d8 9070      		andi r25,hi8(3)
 1542 08da 582F      		mov r21,r24
 1543 08dc 4427      		clr r20
 1544 08de 30E0      		ldi r19,lo8(0)
 1545 08e0 422B      		or r20,r18
 1546 08e2 532B      		or r21,r19
 1547 08e4 5093 0000 		sts (z_accel)+1,r21
 1548 08e8 4093 0000 		sts z_accel,r20
 1549               	.LM228:
 1550 08ec 8091 0000 		lds r24,asc
 1551 08f0 8823      		tst r24
 1552 08f2 01F4      		brne .L211
 1553               	.LM229:
 1554 08f4 252F      		mov r18,r21
 1555 08f6 3327      		clr r19
 1556               	.LVL27:
 1557               	.L213:
 1558               	.LBB92:
 1559               	.LBB93:
 1560               	.LM230:
 1561 08f8 8091 C000 		lds r24,192
 1562 08fc 85FF      		sbrs r24,5
 1563 08fe 00C0      		rjmp .L213
 1564               	.LM231:
 1565 0900 2093 C600 		sts 198,r18
 1566               	.L215:
 1567               	.LBE93:
 1568               	.LBE92:
 1569               	.LBB94:
 1570               	.LBB95:
 1571               	.LM232:
 1572 0904 8091 C000 		lds r24,192
 1573 0908 85FF      		sbrs r24,5
 1574 090a 00C0      		rjmp .L215
 1575               	.LM233:
 1576 090c 4093 C600 		sts 198,r20
 1577 0910 00C0      		rjmp .L207
 1578               	.LVL28:
 1579               	.L211:
 1580               	.LBE95:
 1581               	.LBE94:
 1582               	.LM234:
 1583 0912 8130      		cpi r24,lo8(1)
 1584 0914 01F4      		brne .L207
 1585               	.LM235:
 1586 0916 5F93      		push r21
 1587 0918 4F93      		push r20
 1588 091a 1F93      		push r17
 1589 091c 0F93      		push r16
 1590 091e 0E94 0000 		call rprintf
 1591 0922 0F90      		pop __tmp_reg__
 1592 0924 0F90      		pop __tmp_reg__
 1593 0926 0F90      		pop __tmp_reg__
 1594 0928 0F90      		pop __tmp_reg__
 1595               	.L218:
 1596               	.LBB96:
 1597               	.LBB97:
 1598               	.LM236:
 1599 092a 8091 C000 		lds r24,192
 1600 092e 85FF      		sbrs r24,5
 1601 0930 00C0      		rjmp .L218
 1602               	.LM237:
 1603 0932 89E0      		ldi r24,lo8(9)
 1604 0934 8093 C600 		sts 198,r24
 1605               	.LVL29:
 1606               	.L207:
 1607               	.LBE97:
 1608               	.LBE96:
 1609               	.LM238:
 1610 0938 8091 0000 		lds r24,active_channels
 1611 093c 82FF      		sbrs r24,2
 1612 093e 00C0      		rjmp .L220
 1613               	.LM239:
 1614 0940 83E4      		ldi r24,lo8(67)
 1615 0942 8093 7C00 		sts 124,r24
 1616               	.LM240:
 1617 0946 86EC      		ldi r24,lo8(-58)
 1618 0948 8093 7A00 		sts 122,r24
 1619               	.L222:
 1620               	.LM241:
 1621 094c 8091 7A00 		lds r24,122
 1622 0950 86FD      		sbrc r24,6
 1623 0952 00C0      		rjmp .L222
 1624               	.LM242:
 1625 0954 2091 7800 		lds r18,120
 1626               	.LVL30:
 1627               	.LM243:
 1628 0958 8091 7900 		lds r24,121
 1629               	.LM244:
 1630 095c 90E0      		ldi r25,lo8(0)
 1631 095e 8370      		andi r24,lo8(3)
 1632 0960 9070      		andi r25,hi8(3)
 1633 0962 582F      		mov r21,r24
 1634 0964 4427      		clr r20
 1635 0966 30E0      		ldi r19,lo8(0)
 1636 0968 422B      		or r20,r18
 1637 096a 532B      		or r21,r19
 1638 096c 5093 0000 		sts (pitch)+1,r21
 1639 0970 4093 0000 		sts pitch,r20
 1640               	.LM245:
 1641 0974 8091 0000 		lds r24,asc
 1642 0978 8823      		tst r24
 1643 097a 01F4      		brne .L224
 1644               	.LM246:
 1645 097c 252F      		mov r18,r21
 1646 097e 3327      		clr r19
 1647               	.LVL31:
 1648               	.L226:
 1649               	.LBB98:
 1650               	.LBB99:
 1651               	.LM247:
 1652 0980 8091 C000 		lds r24,192
 1653 0984 85FF      		sbrs r24,5
 1654 0986 00C0      		rjmp .L226
 1655               	.LM248:
 1656 0988 2093 C600 		sts 198,r18
 1657               	.L228:
 1658               	.LBE99:
 1659               	.LBE98:
 1660               	.LBB100:
 1661               	.LBB101:
 1662               	.LM249:
 1663 098c 8091 C000 		lds r24,192
 1664 0990 85FF      		sbrs r24,5
 1665 0992 00C0      		rjmp .L228
 1666               	.LM250:
 1667 0994 4093 C600 		sts 198,r20
 1668 0998 00C0      		rjmp .L220
 1669               	.LVL32:
 1670               	.L224:
 1671               	.LBE101:
 1672               	.LBE100:
 1673               	.LM251:
 1674 099a 8130      		cpi r24,lo8(1)
 1675 099c 01F4      		brne .L220
 1676               	.LM252:
 1677 099e 5F93      		push r21
 1678 09a0 4F93      		push r20
 1679 09a2 1F93      		push r17
 1680 09a4 0F93      		push r16
 1681 09a6 0E94 0000 		call rprintf
 1682 09aa 0F90      		pop __tmp_reg__
 1683 09ac 0F90      		pop __tmp_reg__
 1684 09ae 0F90      		pop __tmp_reg__
 1685 09b0 0F90      		pop __tmp_reg__
 1686               	.L231:
 1687               	.LBB102:
 1688               	.LBB103:
 1689               	.LM253:
 1690 09b2 8091 C000 		lds r24,192
 1691 09b6 85FF      		sbrs r24,5
 1692 09b8 00C0      		rjmp .L231
 1693               	.LM254:
 1694 09ba 89E0      		ldi r24,lo8(9)
 1695 09bc 8093 C600 		sts 198,r24
 1696               	.LVL33:
 1697               	.L220:
 1698               	.LBE103:
 1699               	.LBE102:
 1700               	.LM255:
 1701 09c0 8091 0000 		lds r24,active_channels
 1702 09c4 81FF      		sbrs r24,1
 1703 09c6 00C0      		rjmp .L233
 1704               	.LM256:
 1705 09c8 84E4      		ldi r24,lo8(68)
 1706 09ca 8093 7C00 		sts 124,r24
 1707               	.LM257:
 1708 09ce 86EC      		ldi r24,lo8(-58)
 1709 09d0 8093 7A00 		sts 122,r24
 1710               	.L235:
 1711               	.LM258:
 1712 09d4 8091 7A00 		lds r24,122
 1713 09d8 86FD      		sbrc r24,6
 1714 09da 00C0      		rjmp .L235
 1715               	.LM259:
 1716 09dc 2091 7800 		lds r18,120
 1717               	.LVL34:
 1718               	.LM260:
 1719 09e0 8091 7900 		lds r24,121
 1720               	.LM261:
 1721 09e4 90E0      		ldi r25,lo8(0)
 1722 09e6 8370      		andi r24,lo8(3)
 1723 09e8 9070      		andi r25,hi8(3)
 1724 09ea 582F      		mov r21,r24
 1725 09ec 4427      		clr r20
 1726 09ee 30E0      		ldi r19,lo8(0)
 1727 09f0 422B      		or r20,r18
 1728 09f2 532B      		or r21,r19
 1729 09f4 5093 0000 		sts (roll)+1,r21
 1730 09f8 4093 0000 		sts roll,r20
 1731               	.LM262:
 1732 09fc 8091 0000 		lds r24,asc
 1733 0a00 8823      		tst r24
 1734 0a02 01F4      		brne .L237
 1735               	.LM263:
 1736 0a04 252F      		mov r18,r21
 1737 0a06 3327      		clr r19
 1738               	.LVL35:
 1739               	.L239:
 1740               	.LBB104:
 1741               	.LBB105:
 1742               	.LM264:
 1743 0a08 8091 C000 		lds r24,192
 1744 0a0c 85FF      		sbrs r24,5
 1745 0a0e 00C0      		rjmp .L239
 1746               	.LM265:
 1747 0a10 2093 C600 		sts 198,r18
 1748               	.L241:
 1749               	.LBE105:
 1750               	.LBE104:
 1751               	.LBB106:
 1752               	.LBB107:
 1753               	.LM266:
 1754 0a14 8091 C000 		lds r24,192
 1755 0a18 85FF      		sbrs r24,5
 1756 0a1a 00C0      		rjmp .L241
 1757               	.LM267:
 1758 0a1c 4093 C600 		sts 198,r20
 1759 0a20 00C0      		rjmp .L233
 1760               	.LVL36:
 1761               	.L237:
 1762               	.LBE107:
 1763               	.LBE106:
 1764               	.LM268:
 1765 0a22 8130      		cpi r24,lo8(1)
 1766 0a24 01F4      		brne .L233
 1767               	.LM269:
 1768 0a26 5F93      		push r21
 1769 0a28 4F93      		push r20
 1770 0a2a 1F93      		push r17
 1771 0a2c 0F93      		push r16
 1772 0a2e 0E94 0000 		call rprintf
 1773 0a32 0F90      		pop __tmp_reg__
 1774 0a34 0F90      		pop __tmp_reg__
 1775 0a36 0F90      		pop __tmp_reg__
 1776 0a38 0F90      		pop __tmp_reg__
 1777               	.L244:
 1778               	.LBB108:
 1779               	.LBB109:
 1780               	.LM270:
 1781 0a3a 8091 C000 		lds r24,192
 1782 0a3e 85FF      		sbrs r24,5
 1783 0a40 00C0      		rjmp .L244
 1784               	.LM271:
 1785 0a42 89E0      		ldi r24,lo8(9)
 1786 0a44 8093 C600 		sts 198,r24
 1787               	.LVL37:
 1788               	.L233:
 1789               	.LBE109:
 1790               	.LBE108:
 1791               	.LM272:
 1792 0a48 8091 0000 		lds r24,active_channels
 1793 0a4c 80FF      		sbrs r24,0
 1794 0a4e 00C0      		rjmp .L277
 1795               	.LM273:
 1796 0a50 85E4      		ldi r24,lo8(69)
 1797 0a52 8093 7C00 		sts 124,r24
 1798               	.LM274:
 1799 0a56 86EC      		ldi r24,lo8(-58)
 1800 0a58 8093 7A00 		sts 122,r24
 1801               	.L248:
 1802               	.LM275:
 1803 0a5c 8091 7A00 		lds r24,122
 1804 0a60 86FD      		sbrc r24,6
 1805 0a62 00C0      		rjmp .L248
 1806               	.LM276:
 1807 0a64 2091 7800 		lds r18,120
 1808               	.LVL38:
 1809               	.LM277:
 1810 0a68 8091 7900 		lds r24,121
 1811               	.LM278:
 1812 0a6c 90E0      		ldi r25,lo8(0)
 1813 0a6e 8370      		andi r24,lo8(3)
 1814 0a70 9070      		andi r25,hi8(3)
 1815 0a72 582F      		mov r21,r24
 1816 0a74 4427      		clr r20
 1817 0a76 30E0      		ldi r19,lo8(0)
 1818 0a78 422B      		or r20,r18
 1819 0a7a 532B      		or r21,r19
 1820 0a7c 5093 0000 		sts (yaw)+1,r21
 1821 0a80 4093 0000 		sts yaw,r20
 1822               	.LM279:
 1823 0a84 8091 0000 		lds r24,asc
 1824 0a88 8823      		tst r24
 1825 0a8a 01F4      		brne .L250
 1826               	.LM280:
 1827 0a8c 252F      		mov r18,r21
 1828 0a8e 3327      		clr r19
 1829               	.LVL39:
 1830               	.L252:
 1831               	.LBB110:
 1832               	.LBB111:
 1833               	.LM281:
 1834 0a90 8091 C000 		lds r24,192
 1835 0a94 85FF      		sbrs r24,5
 1836 0a96 00C0      		rjmp .L252
 1837               	.LM282:
 1838 0a98 2093 C600 		sts 198,r18
 1839               	.L254:
 1840               	.LBE111:
 1841               	.LBE110:
 1842               	.LBB112:
 1843               	.LBB113:
 1844               	.LM283:
 1845 0a9c 8091 C000 		lds r24,192
 1846 0aa0 85FF      		sbrs r24,5
 1847 0aa2 00C0      		rjmp .L254
 1848               	.LM284:
 1849 0aa4 4093 C600 		sts 198,r20
 1850 0aa8 00C0      		rjmp .L277
 1851               	.LVL40:
 1852               	.L250:
 1853               	.LBE113:
 1854               	.LBE112:
 1855               	.LM285:
 1856 0aaa 8130      		cpi r24,lo8(1)
 1857 0aac 01F4      		brne .L277
 1858               	.LM286:
 1859 0aae 5F93      		push r21
 1860 0ab0 4F93      		push r20
 1861 0ab2 1F93      		push r17
 1862 0ab4 0F93      		push r16
 1863 0ab6 0E94 0000 		call rprintf
 1864 0aba 0F90      		pop __tmp_reg__
 1865 0abc 0F90      		pop __tmp_reg__
 1866 0abe 0F90      		pop __tmp_reg__
 1867 0ac0 0F90      		pop __tmp_reg__
 1868               	.L257:
 1869               	.LBB114:
 1870               	.LBB115:
 1871               	.LM287:
 1872 0ac2 8091 C000 		lds r24,192
 1873 0ac6 85FF      		sbrs r24,5
 1874 0ac8 00C0      		rjmp .L257
 1875               	.LM288:
 1876 0aca 89E0      		ldi r24,lo8(9)
 1877 0acc 8093 C600 		sts 198,r24
 1878               	.LVL41:
 1879               	.L277:
 1880               	.LBE115:
 1881               	.LBE114:
 1882               	.LBB116:
 1883               	.LBB117:
 1884               	.LM289:
 1885 0ad0 8091 C000 		lds r24,192
 1886 0ad4 85FF      		sbrs r24,5
 1887 0ad6 00C0      		rjmp .L277
 1888               	.LM290:
 1889 0ad8 8AE5      		ldi r24,lo8(90)
 1890 0ada 8093 C600 		sts 198,r24
 1891               	.LBE117:
 1892               	.LBE116:
 1893               	.LM291:
 1894 0ade 8091 0000 		lds r24,asc
 1895 0ae2 8130      		cpi r24,lo8(1)
 1896 0ae4 01F4      		brne .L260
 1897               	.L278:
 1898               	.LBB118:
 1899               	.LBB119:
 1900               	.LM292:
 1901 0ae6 8091 C000 		lds r24,192
 1902 0aea 85FF      		sbrs r24,5
 1903 0aec 00C0      		rjmp .L278
 1904               	.LM293:
 1905 0aee 8AE0      		ldi r24,lo8(10)
 1906 0af0 8093 C600 		sts 198,r24
 1907               	.L263:
 1908               	.LBE119:
 1909               	.LBE118:
 1910               	.LBB120:
 1911               	.LBB121:
 1912               	.LM294:
 1913 0af4 8091 C000 		lds r24,192
 1914 0af8 85FF      		sbrs r24,5
 1915 0afa 00C0      		rjmp .L263
 1916               	.LM295:
 1917 0afc 8DE0      		ldi r24,lo8(13)
 1918 0afe 8093 C600 		sts 198,r24
 1919               	.L260:
 1920               	.LBE121:
 1921               	.LBE120:
 1922               	.LM296:
 1923 0b02 2196      		adiw r28,1
 1924 0b04 D7FF      		sbrs r29,7
 1925 0b06 00C0      		rjmp .L265
 1926 0b08 C0E0      		ldi r28,lo8(0)
 1927 0b0a D0E0      		ldi r29,hi8(0)
 1928               	.L265:
 1929               	.LM297:
 1930 0b0c CE01      		movw r24,r28
 1931 0b0e 8F73      		andi r24,lo8(63)
 1932 0b10 9070      		andi r25,hi8(63)
 1933 0b12 892B      		or r24,r25
 1934 0b14 01F4      		brne .L266
 1935 0b16 85B1      		in r24,37-0x20
 1936 0b18 90E2      		ldi r25,lo8(32)
 1937 0b1a 8927      		eor r24,r25
 1938 0b1c 85B9      		out 37-0x20,r24
 1939               	.L266:
 1940               	.LM298:
 1941 0b1e B09B      		sbis 54-0x20,0
 1942 0b20 00C0      		rjmp .L279
 1943               	.LM299:
 1944 0b22 1F92      		push __zero_reg__
 1945 0b24 1F92      		push __zero_reg__
 1946 0b26 80E0      		ldi r24,lo8(.LC33)
 1947 0b28 90E0      		ldi r25,hi8(.LC33)
 1948 0b2a 9F93      		push r25
 1949 0b2c 8F93      		push r24
 1950 0b2e 0E94 0000 		call rprintf
 1951               	.LVL42:
 1952               	.LM300:
 1953 0b32 0F90      		pop __tmp_reg__
 1954 0b34 0F90      		pop __tmp_reg__
 1955 0b36 0F90      		pop __tmp_reg__
 1956 0b38 0F90      		pop __tmp_reg__
 1957 0b3a 00C0      		rjmp .L274
 1958               	.LVL43:
 1959               	.L279:
 1960               	.LM301:
 1961 0b3c B09B      		sbis 54-0x20,0
 1962 0b3e 00C0      		rjmp .L279
 1963               	.LM302:
 1964 0b40 8091 C000 		lds r24,192
 1965 0b44 87FF      		sbrs r24,7
 1966 0b46 00C0      		rjmp .L348
 1967               	.LM303:
 1968 0b48 8091 C600 		lds r24,198
 1969               	.LVL44:
 1970               	.LM304:
 1971 0b4c 8032      		cpi r24,lo8(32)
 1972 0b4e 01F0      		breq .+2
 1973 0b50 00C0      		rjmp .L348
 1974               	.L274:
 1975               	.LVL45:
 1976               	/* epilogue: frame size=0 */
 1977 0b52 DF91      		pop r29
 1978 0b54 CF91      		pop r28
 1979 0b56 1F91      		pop r17
 1980 0b58 0F91      		pop r16
 1981 0b5a 0895      		ret
 1982               	/* epilogue end (size=5) */
 1983               	/* function get_adc size 624 (615) */
 1984               	.LFE11:
 1986               	.global	main
 1988               	main:
 1989               	.LFB4:
 1990               	.LM305:
 1991               	/* prologue: frame size=0 */
 1992 0b5c EF92      		push r14
 1993 0b5e FF92      		push r15
 1994 0b60 0F93      		push r16
 1995 0b62 1F93      		push r17
 1996 0b64 CF93      		push r28
 1997 0b66 DF93      		push r29
 1998               	/* prologue end (size=6) */
 1999               	.LM306:
 2000 0b68 0E94 0000 		call ioinit
 2001               	.LM307:
 2002 0b6c 8AE0      		ldi r24,lo8(10)
 2003 0b6e 90E0      		ldi r25,hi8(10)
 2004 0b70 0E94 0000 		call USART_Init
 2005               	.LM308:
 2006 0b74 80E0      		ldi r24,lo8(gs(put_char))
 2007 0b76 90E0      		ldi r25,hi8(gs(put_char))
 2008 0b78 0E94 0000 		call rprintf_devopen
 2009 0b7c C0E0      		ldi r28,lo8(0)
 2010 0b7e D0E0      		ldi r29,hi8(0)
 2011               	.LVL46:
 2012               	.L350:
 2013               	.LM309:
 2014 0b80 2D98      		cbi 37-0x20,5
 2015               	.LM310:
 2016 0b82 82E3      		ldi r24,lo8(50)
 2017 0b84 90E0      		ldi r25,hi8(50)
 2018 0b86 0E94 0000 		call delay_ms
 2019               	.LM311:
 2020 0b8a 2D9A      		sbi 37-0x20,5
 2021               	.LM312:
 2022 0b8c 82E3      		ldi r24,lo8(50)
 2023 0b8e 90E0      		ldi r25,hi8(50)
 2024 0b90 0E94 0000 		call delay_ms
 2025               	.LM313:
 2026 0b94 2196      		adiw r28,1
 2027 0b96 C530      		cpi r28,5
 2028 0b98 D105      		cpc r29,__zero_reg__
 2029 0b9a 01F4      		brne .L350
 2030               	.LM314:
 2031 0b9c 1092 0000 		sts asc,__zero_reg__
 2032               	.LM315:
 2033 0ba0 1092 0000 		sts auto_run,__zero_reg__
 2034               	.LM316:
 2035 0ba4 81E0      		ldi r24,lo8(1)
 2036 0ba6 90E0      		ldi r25,hi8(1)
 2037 0ba8 0E94 0000 		call EEPROM_read
 2038               	.LM317:
 2039 0bac 8F3F      		cpi r24,lo8(-1)
 2040 0bae 01F4      		brne .L352
 2041               	.LM318:
 2042               	/* #APP */
 2043 0bb0 F894      		cli
 2044               	.LM319:
 2045               	/* #NOAPP */
 2046 0bb2 64E6      		ldi r22,lo8(100)
 2047 0bb4 80E0      		ldi r24,lo8(0)
 2048 0bb6 90E0      		ldi r25,hi8(0)
 2049 0bb8 0E94 0000 		call EEPROM_write
 2050               	.LM320:
 2051 0bbc 60E0      		ldi r22,lo8(0)
 2052 0bbe 81E0      		ldi r24,lo8(1)
 2053 0bc0 90E0      		ldi r25,hi8(1)
 2054 0bc2 0E94 0000 		call EEPROM_write
 2055               	.LM321:
 2056 0bc6 60E0      		ldi r22,lo8(0)
 2057 0bc8 82E0      		ldi r24,lo8(2)
 2058 0bca 90E0      		ldi r25,hi8(2)
 2059 0bcc 0E94 0000 		call EEPROM_write
 2060               	.LM322:
 2061 0bd0 6FE3      		ldi r22,lo8(63)
 2062 0bd2 83E0      		ldi r24,lo8(3)
 2063 0bd4 90E0      		ldi r25,hi8(3)
 2064 0bd6 0E94 0000 		call EEPROM_write
 2065               	.LM323:
 2066               	/* #APP */
 2067 0bda 7894      		sei
 2068               	.LM324:
 2069               	/* #NOAPP */
 2070 0bdc 80E0      		ldi r24,lo8(0x42c80000)
 2071 0bde 90E0      		ldi r25,hi8(0x42c80000)
 2072 0be0 A8EC      		ldi r26,hlo8(0x42c80000)
 2073 0be2 B2E4      		ldi r27,hhi8(0x42c80000)
 2074 0be4 8093 0000 		sts freq,r24
 2075 0be8 9093 0000 		sts (freq)+1,r25
 2076 0bec A093 0000 		sts (freq)+2,r26
 2077 0bf0 B093 0000 		sts (freq)+3,r27
 2078               	.LM325:
 2079 0bf4 1092 0000 		sts asc,__zero_reg__
 2080               	.LM326:
 2081 0bf8 1092 0000 		sts auto_run,__zero_reg__
 2082 0bfc 00C0      		rjmp .L402
 2083               	.L352:
 2084               	.LM327:
 2085 0bfe 81E0      		ldi r24,lo8(1)
 2086 0c00 90E0      		ldi r25,hi8(1)
 2087 0c02 0E94 0000 		call EEPROM_read
 2088 0c06 E82E      		mov r14,r24
 2089               	.LVL47:
 2090 0c08 FF24      		clr r15
 2091               	.LVL48:
 2092               	.LM328:
 2093 0c0a FE2C      		mov r15,r14
 2094 0c0c EE24      		clr r14
 2095               	.LVL49:
 2096               	.LM329:
 2097 0c0e 80E0      		ldi r24,lo8(0)
 2098 0c10 90E0      		ldi r25,hi8(0)
 2099 0c12 0E94 0000 		call EEPROM_read
 2100               	.LM330:
 2101 0c16 90E0      		ldi r25,lo8(0)
 2102 0c18 E82A      		or r14,r24
 2103 0c1a F92A      		or r15,r25
 2104 0c1c 0027      		clr r16
 2105 0c1e F7FC      		sbrc r15,7
 2106 0c20 0095      		com r16
 2107 0c22 102F      		mov r17,r16
 2108               	.LVL50:
 2109 0c24 C801      		movw r24,r16
 2110 0c26 B701      		movw r22,r14
 2111 0c28 0E94 0000 		call __floatsisf
 2112 0c2c 6093 0000 		sts freq,r22
 2113 0c30 7093 0000 		sts (freq)+1,r23
 2114 0c34 8093 0000 		sts (freq)+2,r24
 2115 0c38 9093 0000 		sts (freq)+3,r25
 2116               	.LM331:
 2117 0c3c 83E0      		ldi r24,lo8(3)
 2118 0c3e 90E0      		ldi r25,hi8(3)
 2119 0c40 0E94 0000 		call EEPROM_read
 2120 0c44 8093 0000 		sts active_channels,r24
 2121               	.LM332:
 2122 0c48 82E0      		ldi r24,lo8(2)
 2123 0c4a 90E0      		ldi r25,hi8(2)
 2124 0c4c 0E94 0000 		call EEPROM_read
 2125               	.LM333:
 2126 0c50 282F      		mov r18,r24
 2127 0c52 83FD      		sbrc r24,3
 2128 0c54 299A      		sbi 37-0x20,1
 2129               	.L355:
 2130               	.LM334:
 2131 0c56 22FD      		sbrc r18,2
 2132 0c58 289A      		sbi 37-0x20,0
 2133               	.L357:
 2134               	.LM335:
 2135 0c5a 21FF      		sbrs r18,1
 2136 0c5c 00C0      		rjmp .L359
 2137 0c5e 81E0      		ldi r24,lo8(1)
 2138 0c60 8093 0000 		sts auto_run,r24
 2139               	.L359:
 2140               	.LM336:
 2141 0c64 20FF      		sbrs r18,0
 2142 0c66 00C0      		rjmp .L405
 2143 0c68 81E0      		ldi r24,lo8(1)
 2144 0c6a 8093 0000 		sts asc,r24
 2145               	.LVL51:
 2146               	.L405:
 2147               	.LM337:
 2148 0c6e 8091 0000 		lds r24,auto_run
 2149               	.LVL52:
 2150 0c72 8130      		cpi r24,lo8(1)
 2151 0c74 01F4      		brne .L362
 2152               	.L392:
 2153               	.LM338:
 2154 0c76 0E94 0000 		call get_adc
 2155               	.LM339:
 2156 0c7a 0E94 0000 		call config_menu
 2157               	.LM340:
 2158 0c7e 8091 0000 		lds r24,auto_run
 2159 0c82 8823      		tst r24
 2160 0c84 01F4      		brne .L392
 2161               	.L362:
 2162               	.LM341:
 2163 0c86 8091 C000 		lds r24,192
 2164 0c8a 87FF      		sbrs r24,7
 2165 0c8c 00C0      		rjmp .L405
 2166               	.LM342:
 2167 0c8e 8091 C600 		lds r24,198
 2168               	.LVL53:
 2169               	.LM343:
 2170 0c92 8332      		cpi r24,lo8(35)
 2171 0c94 01F4      		brne .L365
 2172               	.LM344:
 2173 0c96 1092 0000 		sts asc,__zero_reg__
 2174               	.LM345:
 2175 0c9a 0E94 0000 		call get_adc
 2176               	.LVL54:
 2177 0c9e 00C0      		rjmp .L405
 2178               	.LVL55:
 2179               	.L365:
 2180               	.LM346:
 2181 0ca0 8532      		cpi r24,lo8(37)
 2182 0ca2 01F4      		brne .L367
 2183               	.L402:
 2184               	.LM347:
 2185 0ca4 85B1      		in r24,37-0x20
 2186               	.LVL56:
 2187 0ca6 8C7F      		andi r24,lo8(-4)
 2188 0ca8 00C0      		rjmp .L403
 2189               	.LVL57:
 2190               	.L367:
 2191               	.LM348:
 2192 0caa 8632      		cpi r24,lo8(38)
 2193 0cac 01F4      		brne .L369
 2194               	.LM349:
 2195 0cae 289A      		sbi 37-0x20,0
 2196               	.LM350:
 2197 0cb0 2998      		cbi 37-0x20,1
 2198 0cb2 00C0      		rjmp .L405
 2199               	.L369:
 2200               	.LM351:
 2201 0cb4 8732      		cpi r24,lo8(39)
 2202 0cb6 01F4      		brne .L371
 2203               	.LM352:
 2204 0cb8 2898      		cbi 37-0x20,0
 2205               	.LM353:
 2206 0cba 299A      		sbi 37-0x20,1
 2207 0cbc 00C0      		rjmp .L405
 2208               	.L371:
 2209               	.LM354:
 2210 0cbe 8832      		cpi r24,lo8(40)
 2211 0cc0 01F4      		brne .L373
 2212               	.LM355:
 2213 0cc2 85B1      		in r24,37-0x20
 2214               	.LVL58:
 2215 0cc4 8360      		ori r24,lo8(3)
 2216               	.L403:
 2217 0cc6 85B9      		out 37-0x20,r24
 2218 0cc8 00C0      		rjmp .L405
 2219               	.LVL59:
 2220               	.L373:
 2221               	.LM356:
 2222 0cca 8932      		cpi r24,lo8(41)
 2223 0ccc 01F4      		brne .L375
 2224 0cce 80E0      		ldi r24,lo8(0x42480000)
 2225 0cd0 90E0      		ldi r25,hi8(0x42480000)
 2226 0cd2 A8E4      		ldi r26,hlo8(0x42480000)
 2227 0cd4 B2E4      		ldi r27,hhi8(0x42480000)
 2228               	.LVL60:
 2229 0cd6 00C0      		rjmp .L404
 2230               	.LVL61:
 2231               	.L375:
 2232               	.LM357:
 2233 0cd8 8A32      		cpi r24,lo8(42)
 2234 0cda 01F4      		brne .L377
 2235 0cdc 80E0      		ldi r24,lo8(0x42c80000)
 2236 0cde 90E0      		ldi r25,hi8(0x42c80000)
 2237 0ce0 A8EC      		ldi r26,hlo8(0x42c80000)
 2238 0ce2 B2E4      		ldi r27,hhi8(0x42c80000)
 2239               	.LVL62:
 2240 0ce4 00C0      		rjmp .L404
 2241               	.LVL63:
 2242               	.L377:
 2243               	.LM358:
 2244 0ce6 8B32      		cpi r24,lo8(43)
 2245 0ce8 01F4      		brne .L379
 2246 0cea 80E0      		ldi r24,lo8(0x43160000)
 2247 0cec 90E0      		ldi r25,hi8(0x43160000)
 2248 0cee A6E1      		ldi r26,hlo8(0x43160000)
 2249 0cf0 B3E4      		ldi r27,hhi8(0x43160000)
 2250               	.LVL64:
 2251 0cf2 00C0      		rjmp .L404
 2252               	.LVL65:
 2253               	.L379:
 2254               	.LM359:
 2255 0cf4 8C32      		cpi r24,lo8(44)
 2256 0cf6 01F4      		brne .L381
 2257 0cf8 80E0      		ldi r24,lo8(0x43480000)
 2258 0cfa 90E0      		ldi r25,hi8(0x43480000)
 2259 0cfc A8E4      		ldi r26,hlo8(0x43480000)
 2260 0cfe B3E4      		ldi r27,hhi8(0x43480000)
 2261               	.LVL66:
 2262 0d00 00C0      		rjmp .L404
 2263               	.LVL67:
 2264               	.L381:
 2265               	.LM360:
 2266 0d02 8D32      		cpi r24,lo8(45)
 2267 0d04 01F4      		brne .L383
 2268 0d06 80E0      		ldi r24,lo8(0x437a0000)
 2269 0d08 90E0      		ldi r25,hi8(0x437a0000)
 2270 0d0a AAE7      		ldi r26,hlo8(0x437a0000)
 2271 0d0c B3E4      		ldi r27,hhi8(0x437a0000)
 2272               	.LVL68:
 2273               	.L404:
 2274 0d0e 8093 0000 		sts freq,r24
 2275 0d12 9093 0000 		sts (freq)+1,r25
 2276 0d16 A093 0000 		sts (freq)+2,r26
 2277 0d1a B093 0000 		sts (freq)+3,r27
 2278 0d1e 00C0      		rjmp .L405
 2279               	.LVL69:
 2280               	.L383:
 2281               	.LM361:
 2282 0d20 8032      		cpi r24,lo8(32)
 2283 0d22 01F0      		breq .+2
 2284 0d24 00C0      		rjmp .L405
 2285               	.L399:
 2286               	.LM362:
 2287 0d26 0E94 0000 		call config_menu
 2288               	.LVL70:
 2289               	.LM363:
 2290 0d2a 8091 0000 		lds r24,auto_run
 2291 0d2e 8823      		tst r24
 2292 0d30 01F4      		brne .+2
 2293 0d32 00C0      		rjmp .L405
 2294               	.LM364:
 2295 0d34 0E94 0000 		call get_adc
 2296 0d38 00C0      		rjmp .L399
 2297               	/* epilogue: frame size=0 */
 2298               	/* epilogue: noreturn */
 2299               	/* epilogue end (size=0) */
 2300               	/* function main size 243 (237) */
 2301               	.LFE4:
 2303               	.global	active_channels
 2304               		.data
 2307               	active_channels:
 2308 02a7 3F        		.byte	63
 2309               	.global	auto_run
 2310               	.global	auto_run
 2311               		.section .bss
 2314               	auto_run:
 2315 0000 00        		.skip 1,0
 2316               	.global	asc
 2317               		.data
 2320               	asc:
 2321 02a8 01        		.byte	1
 2322               	.global	freq
 2323               	.global	freq
 2324               		.section .bss
 2327               	freq:
 2328 0001 0000 0000 		.skip 4,0
 2329               		.comm x_accel,2,1
 2330               		.comm y_accel,2,1
 2331               		.comm z_accel,2,1
 2332               		.comm pitch,2,1
 2333               		.comm roll,2,1
 2334               		.comm yaw,2,1
 2335               		.comm tmr_cnt,2,1
 2440               	.Letext0:
DEFINED SYMBOLS
                            *ABS*:00000000 main.c
C:\DOCUME~1\Dokter\LOCALS~1\Temp/cc2OBC0I.s:2      *ABS*:0000003f __SREG__
C:\DOCUME~1\Dokter\LOCALS~1\Temp/cc2OBC0I.s:3      *ABS*:0000003e __SP_H__
C:\DOCUME~1\Dokter\LOCALS~1\Temp/cc2OBC0I.s:4      *ABS*:0000003d __SP_L__
C:\DOCUME~1\Dokter\LOCALS~1\Temp/cc2OBC0I.s:5      *ABS*:00000000 __tmp_reg__
C:\DOCUME~1\Dokter\LOCALS~1\Temp/cc2OBC0I.s:6      *ABS*:00000001 __zero_reg__
C:\DOCUME~1\Dokter\LOCALS~1\Temp/cc2OBC0I.s:19     .text:00000000 ioinit
C:\DOCUME~1\Dokter\LOCALS~1\Temp/cc2OBC0I.s:44     .text:00000016 USART_Init
C:\DOCUME~1\Dokter\LOCALS~1\Temp/cc2OBC0I.s:74     .text:00000036 delay_us
C:\DOCUME~1\Dokter\LOCALS~1\Temp/cc2OBC0I.s:105    .text:0000004a delay_ms
C:\DOCUME~1\Dokter\LOCALS~1\Temp/cc2OBC0I.s:145    .text:00000076 put_char
C:\DOCUME~1\Dokter\LOCALS~1\Temp/cc2OBC0I.s:168    .text:00000086 get_char
C:\DOCUME~1\Dokter\LOCALS~1\Temp/cc2OBC0I.s:190    .text:00000096 EEPROM_write
C:\DOCUME~1\Dokter\LOCALS~1\Temp/cc2OBC0I.s:217    .text:000000a6 EEPROM_read
C:\DOCUME~1\Dokter\LOCALS~1\Temp/cc2OBC0I.s:313    .text:000000b6 config_menu
C:\DOCUME~1\Dokter\LOCALS~1\Temp/cc2OBC0I.s:2327   .bss:00000001 freq
C:\DOCUME~1\Dokter\LOCALS~1\Temp/cc2OBC0I.s:2320   .data:000002a8 asc
C:\DOCUME~1\Dokter\LOCALS~1\Temp/cc2OBC0I.s:2314   .bss:00000000 auto_run
C:\DOCUME~1\Dokter\LOCALS~1\Temp/cc2OBC0I.s:2307   .data:000002a7 active_channels
C:\DOCUME~1\Dokter\LOCALS~1\Temp/cc2OBC0I.s:1175   .text:0000067c get_adc
                            *COM*:00000002 x_accel
                            *COM*:00000002 y_accel
                            *COM*:00000002 z_accel
                            *COM*:00000002 pitch
                            *COM*:00000002 roll
                            *COM*:00000002 yaw
                            *COM*:00000002 tmr_cnt
C:\DOCUME~1\Dokter\LOCALS~1\Temp/cc2OBC0I.s:1988   .text:00000b5c main

UNDEFINED SYMBOLS
__do_copy_data
__do_clear_bss
__fixsfsi
rprintf
__floatsisf
__divsf3
rprintf_devopen
