   1               		.file	"rprintf.c"
   2               	__SREG__ = 0x3f
   3               	__SP_H__ = 0x3e
   4               	__SP_L__ = 0x3d
   5               	__tmp_reg__ = 0
   6               	__zero_reg__ = 1
   7               		.global __do_copy_data
   8               		.global __do_clear_bss
  16               	.Ltext0:
  17               	.global	rprintf_devopen
  19               	rprintf_devopen:
  20               	.LFB2:
  21               	.LM1:
  22               	/* prologue: frame size=0 */
  23               	/* prologue end (size=0) */
  24               	.LVL0:
  25               	.LM2:
  26 0000 9093 0000 		sts (putcharfunc)+1,r25
  27 0004 8093 0000 		sts putcharfunc,r24
  28               	/* epilogue: frame size=0 */
  29 0008 0895      		ret
  30               	/* epilogue end (size=1) */
  31               	/* function rprintf_devopen size 5 (4) */
  32               	.LFE2:
  35               	myputchar:
  36               	.LFB3:
  37               	.LM3:
  38               	/* prologue: frame size=0 */
  39 000a 1F93      		push r17
  40               	/* prologue end (size=1) */
  41               	.LVL1:
  42 000c 182F      		mov r17,r24
  43               	.LM4:
  44 000e 8A30      		cpi r24,lo8(10)
  45 0010 01F4      		brne .L4
  46               	.LM5:
  47 0012 E091 0000 		lds r30,putcharfunc
  48 0016 F091 0000 		lds r31,(putcharfunc)+1
  49 001a 8DE0      		ldi r24,lo8(13)
  50 001c 90E0      		ldi r25,hi8(13)
  51               	.LVL2:
  52 001e 0995      		icall
  53               	.LVL3:
  54               	.L4:
  55               	.LM6:
  56 0020 E091 0000 		lds r30,putcharfunc
  57 0024 F091 0000 		lds r31,(putcharfunc)+1
  58 0028 812F      		mov r24,r17
  59 002a 90E0      		ldi r25,lo8(0)
  60               	.LVL4:
  61 002c 0995      		icall
  62               	.LVL5:
  63               	/* epilogue: frame size=0 */
  64 002e 1F91      		pop r17
  65 0030 0895      		ret
  66               	/* epilogue end (size=2) */
  67               	/* function myputchar size 20 (17) */
  68               	.LFE3:
  70               	.global	rprintf
  72               	rprintf:
  73               	.LFB4:
  74               	.LM7:
  75               	/* prologue: frame size=14 */
  76 0032 2F92      		push r2
  77 0034 3F92      		push r3
  78 0036 4F92      		push r4
  79 0038 5F92      		push r5
  80 003a 6F92      		push r6
  81 003c 7F92      		push r7
  82 003e 8F92      		push r8
  83 0040 9F92      		push r9
  84 0042 AF92      		push r10
  85 0044 BF92      		push r11
  86 0046 CF92      		push r12
  87 0048 DF92      		push r13
  88 004a EF92      		push r14
  89 004c FF92      		push r15
  90 004e 0F93      		push r16
  91 0050 1F93      		push r17
  92 0052 CF93      		push r28
  93 0054 DF93      		push r29
  94 0056 CDB7      		in r28,__SP_L__
  95 0058 DEB7      		in r29,__SP_H__
  96 005a 2E97      		sbiw r28,14
  97 005c 0FB6      		in __tmp_reg__,__SREG__
  98 005e F894      		cli
  99 0060 DEBF      		out __SP_H__,r29
 100 0062 0FBE      		out __SREG__,__tmp_reg__
 101 0064 CDBF      		out __SP_L__,r28
 102               	/* prologue end (size=26) */
 103               	.LVL6:
 104 0066 FE01      		movw r30,r28
 105 0068 B396      		adiw r30,35
 106 006a 6190      		ld r6,Z+
 107 006c 7190      		ld r7,Z+
 108               	.LM8:
 109 006e FA83      		std Y+2,r31
 110 0070 E983      		std Y+1,r30
 111               	.LVL7:
 112               	.LM9:
 113 0072 3EE0      		ldi r19,lo8(14)
 114 0074 232E      		mov r2,r19
 115 0076 312C      		mov r3,__zero_reg__
 116 0078 2C0E      		add r2,r28
 117 007a 3D1E      		adc r3,r29
 118 007c 00C0      		rjmp .L63
 119               	.LVL8:
 120               	.L9:
 121               	.LM10:
 122 007e 8823      		tst r24
 123 0080 01F4      		brne .+2
 124 0082 00C0      		rjmp .L54
 125               	.L61:
 126               	.LM11:
 127 0084 0E94 0000 		call myputchar
 128               	.LVL9:
 129               	.L63:
 130               	.LM12:
 131 0088 F301      		movw r30,r6
 132 008a 8191      		ld r24,Z+
 133               	.LVL10:
 134 008c 3F01      		movw r6,r30
 135 008e 8532      		cpi r24,lo8(37)
 136 0090 01F4      		brne .L9
 137               	.LM13:
 138 0092 8191      		ld r24,Z+
 139               	.LVL11:
 140 0094 3F01      		movw r6,r30
 141               	.LM14:
 142 0096 8033      		cpi r24,lo8(48)
 143 0098 01F0      		breq .L13
 144 009a 8032      		cpi r24,lo8(32)
 145 009c 01F0      		breq .L13
 146 009e 4424      		clr r4
 147 00a0 00C0      		rjmp .L62
 148               	.L13:
 149               	.LM15:
 150 00a2 F301      		movw r30,r6
 151 00a4 9191      		ld r25,Z+
 152               	.LVL12:
 153 00a6 3F01      		movw r6,r30
 154               	.LM16:
 155 00a8 20ED      		ldi r18,lo8(-48)
 156 00aa 522E      		mov r5,r18
 157 00ac 590E      		add r5,r25
 158 00ae F9E0      		ldi r31,lo8(9)
 159 00b0 F515      		cp r31,r5
 160 00b2 00F4      		brsh .L17
 161 00b4 482E      		mov r4,r24
 162 00b6 892F      		mov r24,r25
 163               	.LVL13:
 164               	.L62:
 165 00b8 5524      		clr r5
 166 00ba 00C0      		rjmp .L16
 167               	.LVL14:
 168               	.L17:
 169               	.LM17:
 170 00bc 482E      		mov r4,r24
 171 00be F301      		movw r30,r6
 172 00c0 8191      		ld r24,Z+
 173               	.LVL15:
 174 00c2 3F01      		movw r6,r30
 175               	.LVL16:
 176               	.L16:
 177               	.LM18:
 178 00c4 8C36      		cpi r24,lo8(108)
 179 00c6 01F0      		breq .L19
 180 00c8 8C34      		cpi r24,lo8(76)
 181 00ca 01F0      		breq .L19
 182 00cc 90E0      		ldi r25,lo8(0)
 183 00ce 00C0      		rjmp .L22
 184               	.LVL17:
 185               	.L19:
 186               	.LM19:
 187 00d0 F301      		movw r30,r6
 188 00d2 8191      		ld r24,Z+
 189 00d4 3F01      		movw r6,r30
 190 00d6 91E0      		ldi r25,lo8(1)
 191               	.L22:
 192               	.LM20:
 193 00d8 8835      		cpi r24,lo8(88)
 194 00da 01F0      		breq .L28
 195 00dc 8935      		cpi r24,lo8(89)
 196 00de 00F4      		brsh .L29
 197 00e0 8934      		cpi r24,lo8(73)
 198 00e2 01F0      		breq .L25
 199 00e4 8A34      		cpi r24,lo8(74)
 200 00e6 00F4      		brsh .L30
 201 00e8 8334      		cpi r24,lo8(67)
 202 00ea 01F0      		breq .L24
 203 00ec 8434      		cpi r24,lo8(68)
 204 00ee 01F4      		brne .L61
 205 00f0 00C0      		rjmp .L25
 206               	.L30:
 207 00f2 8335      		cpi r24,lo8(83)
 208 00f4 01F0      		breq .L26
 209 00f6 8535      		cpi r24,lo8(85)
 210 00f8 01F4      		brne .L61
 211 00fa 00C0      		rjmp .L27
 212               	.L29:
 213 00fc 8936      		cpi r24,lo8(105)
 214 00fe 01F0      		breq .L25
 215 0100 8A36      		cpi r24,lo8(106)
 216 0102 00F4      		brsh .L31
 217 0104 8336      		cpi r24,lo8(99)
 218 0106 01F0      		breq .L24
 219 0108 8436      		cpi r24,lo8(100)
 220 010a 01F0      		breq .+2
 221 010c 00C0      		rjmp .L61
 222 010e 00C0      		rjmp .L25
 223               	.L31:
 224 0110 8537      		cpi r24,lo8(117)
 225 0112 01F4      		brne .+2
 226 0114 00C0      		rjmp .L27
 227 0116 8837      		cpi r24,lo8(120)
 228 0118 01F0      		breq .L28
 229 011a 8337      		cpi r24,lo8(115)
 230 011c 01F0      		breq .+2
 231 011e 00C0      		rjmp .L61
 232 0120 00C0      		rjmp .L26
 233               	.L24:
 234               	.LM21:
 235 0122 E981      		ldd r30,Y+1
 236 0124 FA81      		ldd r31,Y+2
 237 0126 3296      		adiw r30,2
 238 0128 FA83      		std Y+2,r31
 239 012a E983      		std Y+1,r30
 240               	.LVL18:
 241 012c 3297      		sbiw r30,2
 242 012e 8081      		ld r24,Z
 243 0130 00C0      		rjmp .L61
 244               	.L26:
 245               	.LM22:
 246 0132 E981      		ldd r30,Y+1
 247 0134 FA81      		ldd r31,Y+2
 248 0136 3296      		adiw r30,2
 249 0138 FA83      		std Y+2,r31
 250 013a E983      		std Y+1,r30
 251               	.LVL19:
 252 013c 1291      		ld r17,-Z
 253 013e 0291      		ld r16,-Z
 254 0140 00C0      		rjmp .L32
 255               	.LVL20:
 256               	.L33:
 257               	.LM23:
 258 0142 0E94 0000 		call myputchar
 259               	.LVL21:
 260 0146 0F5F      		subi r16,lo8(-(1))
 261 0148 1F4F      		sbci r17,hi8(-(1))
 262               	.LVL22:
 263               	.L32:
 264 014a F801      		movw r30,r16
 265 014c 8081      		ld r24,Z
 266               	.LVL23:
 267 014e 8823      		tst r24
 268 0150 01F4      		brne .L33
 269 0152 00C0      		rjmp .L63
 270               	.LVL24:
 271               	.L28:
 272 0154 20E1      		ldi r18,lo8(16)
 273 0156 30E0      		ldi r19,hi8(16)
 274               	.LVL25:
 275 0158 00C0      		rjmp .L34
 276               	.LVL26:
 277               	.L25:
 278 015a E981      		ldd r30,Y+1
 279 015c FA81      		ldd r31,Y+2
 280               	.LM24:
 281 015e 9923      		tst r25
 282 0160 01F0      		breq .L35
 283               	.LVL27:
 284 0162 3496      		adiw r30,4
 285 0164 FA83      		std Y+2,r31
 286 0166 E983      		std Y+1,r30
 287 0168 1291      		ld r17,-Z
 288 016a 0291      		ld r16,-Z
 289 016c F290      		ld r15,-Z
 290 016e E290      		ld r14,-Z
 291               	.LVL28:
 292 0170 00C0      		rjmp .L37
 293               	.LVL29:
 294               	.L35:
 295               	.LM25:
 296 0172 3296      		adiw r30,2
 297 0174 FA83      		std Y+2,r31
 298 0176 E983      		std Y+1,r30
 299 0178 9291      		ld r25,-Z
 300 017a 8291      		ld r24,-Z
 301               	.LVL30:
 302 017c 7C01      		movw r14,r24
 303 017e 0027      		clr r16
 304 0180 F7FC      		sbrc r15,7
 305 0182 0095      		com r16
 306 0184 102F      		mov r17,r16
 307               	.LVL31:
 308               	.L37:
 309               	.LM26:
 310 0186 17FF      		sbrs r17,7
 311 0188 00C0      		rjmp .L38
 312               	.LM27:
 313 018a 1095      		com r17
 314 018c 0095      		com r16
 315 018e F094      		com r15
 316 0190 E094      		com r14
 317 0192 E11C      		adc r14,__zero_reg__
 318 0194 F11C      		adc r15,__zero_reg__
 319 0196 011D      		adc r16,__zero_reg__
 320 0198 111D      		adc r17,__zero_reg__
 321               	.LM28:
 322 019a 8DE2      		ldi r24,lo8(45)
 323               	.LVL32:
 324 019c 0E94 0000 		call myputchar
 325               	.LVL33:
 326               	.L38:
 327               	.LM29:
 328 01a0 2AE0      		ldi r18,lo8(10)
 329 01a2 30E0      		ldi r19,hi8(10)
 330               	.LVL34:
 331 01a4 00C0      		rjmp .L40
 332               	.LVL35:
 333               	.L41:
 334               	.LM30:
 335 01a6 E981      		ldd r30,Y+1
 336 01a8 FA81      		ldd r31,Y+2
 337 01aa 3496      		adiw r30,4
 338 01ac FA83      		std Y+2,r31
 339 01ae E983      		std Y+1,r30
 340               	.LVL36:
 341 01b0 1291      		ld r17,-Z
 342 01b2 0291      		ld r16,-Z
 343 01b4 F290      		ld r15,-Z
 344 01b6 E290      		ld r14,-Z
 345 01b8 00C0      		rjmp .L40
 346               	.L59:
 347               	.LM31:
 348 01ba E981      		ldd r30,Y+1
 349 01bc FA81      		ldd r31,Y+2
 350 01be 3296      		adiw r30,2
 351 01c0 FA83      		std Y+2,r31
 352 01c2 E983      		std Y+1,r30
 353               	.LVL37:
 354 01c4 9291      		ld r25,-Z
 355 01c6 8291      		ld r24,-Z
 356               	.LVL38:
 357 01c8 7C01      		movw r14,r24
 358               	.LVL39:
 359 01ca 00E0      		ldi r16,lo8(0)
 360 01cc 10E0      		ldi r17,hi8(0)
 361               	.LVL40:
 362               	.L40:
 363               	.LM32:
 364 01ce 1E86      		std Y+14,__zero_reg__
 365 01d0 6101      		movw r12,r2
 366               	.LVL41:
 367               	.LBB2:
 368               	.LM33:
 369 01d2 4901      		movw r8,r18
 370 01d4 AA24      		clr r10
 371 01d6 BB24      		clr r11
 372               	.LVL42:
 373               	.L43:
 374 01d8 C801      		movw r24,r16
 375 01da B701      		movw r22,r14
 376 01dc A501      		movw r20,r10
 377 01de 9401      		movw r18,r8
 378 01e0 0E94 0000 		call __udivmodsi4
 379 01e4 262F      		mov r18,r22
 380               	.LVL43:
 381 01e6 205D      		subi r18,lo8(-(48))
 382               	.LM34:
 383 01e8 2A33      		cpi r18,lo8(58)
 384 01ea 00F0      		brlo .L44
 385               	.LM35:
 386 01ec 295F      		subi r18,lo8(-(7))
 387               	.L44:
 388               	.LM36:
 389 01ee F601      		movw r30,r12
 390 01f0 2293      		st -Z,r18
 391 01f2 6F01      		movw r12,r30
 392               	.LM37:
 393 01f4 C801      		movw r24,r16
 394 01f6 B701      		movw r22,r14
 395 01f8 A501      		movw r20,r10
 396 01fa 9401      		movw r18,r8
 397               	.LVL44:
 398 01fc 0E94 0000 		call __udivmodsi4
 399 0200 7901      		movw r14,r18
 400 0202 8A01      		movw r16,r20
 401               	.LVL45:
 402               	.LM38:
 403 0204 5110      		cpse r5,__zero_reg__
 404 0206 5A94      		dec r5
 405               	.L46:
 406               	.LBE2:
 407               	.LM39:
 408 0208 E114      		cp r14,__zero_reg__
 409 020a F104      		cpc r15,__zero_reg__
 410 020c 0105      		cpc r16,__zero_reg__
 411 020e 1105      		cpc r17,__zero_reg__
 412 0210 01F4      		brne .L43
 413 0212 252D      		mov r18,r5
 414 0214 C601      		movw r24,r12
 415               	.LVL46:
 416 0216 00C0      		rjmp .L49
 417               	.LVL47:
 418               	.L50:
 419               	.LM40:
 420 0218 F601      		movw r30,r12
 421 021a 4292      		st -Z,r4
 422 021c 6F01      		movw r12,r30
 423               	.LVL48:
 424               	.L49:
 425 021e 5A94      		dec r5
 426 0220 FFEF      		ldi r31,lo8(-1)
 427 0222 5F16      		cp r5,r31
 428 0224 01F4      		brne .L50
 429               	.LVL49:
 430 0226 8C01      		movw r16,r24
 431               	.LVL50:
 432 0228 021B      		sub r16,r18
 433 022a 1109      		sbc r17,__zero_reg__
 434               	.LVL51:
 435 022c 00C0      		rjmp .L52
 436               	.LVL52:
 437               	.L53:
 438               	.LM41:
 439 022e 0E94 0000 		call myputchar
 440               	.LVL53:
 441 0232 0F5F      		subi r16,lo8(-(1))
 442 0234 1F4F      		sbci r17,hi8(-(1))
 443               	.LVL54:
 444               	.L52:
 445 0236 F801      		movw r30,r16
 446 0238 8081      		ld r24,Z
 447 023a 8823      		tst r24
 448 023c 01F4      		brne .L53
 449               	.LVL55:
 450 023e 00C0      		rjmp .L63
 451               	.LVL56:
 452               	.L27:
 453 0240 2AE0      		ldi r18,lo8(10)
 454 0242 30E0      		ldi r19,hi8(10)
 455               	.LVL57:
 456               	.L34:
 457               	.LM42:
 458 0244 9923      		tst r25
 459 0246 01F0      		breq .+2
 460 0248 00C0      		rjmp .L41
 461 024a 00C0      		rjmp .L59
 462               	.LVL58:
 463               	.L54:
 464               	/* epilogue: frame size=14 */
 465 024c 2E96      		adiw r28,14
 466 024e 0FB6      		in __tmp_reg__,__SREG__
 467 0250 F894      		cli
 468 0252 DEBF      		out __SP_H__,r29
 469 0254 0FBE      		out __SREG__,__tmp_reg__
 470 0256 CDBF      		out __SP_L__,r28
 471 0258 DF91      		pop r29
 472 025a CF91      		pop r28
 473 025c 1F91      		pop r17
 474 025e 0F91      		pop r16
 475 0260 FF90      		pop r15
 476 0262 EF90      		pop r14
 477 0264 DF90      		pop r13
 478 0266 CF90      		pop r12
 479 0268 BF90      		pop r11
 480 026a AF90      		pop r10
 481 026c 9F90      		pop r9
 482 026e 8F90      		pop r8
 483 0270 7F90      		pop r7
 484 0272 6F90      		pop r6
 485 0274 5F90      		pop r5
 486 0276 4F90      		pop r4
 487 0278 3F90      		pop r3
 488 027a 2F90      		pop r2
 489 027c 0895      		ret
 490               	/* epilogue end (size=25) */
 491               	/* function rprintf size 295 (244) */
 492               	.LFE4:
 494               		.lcomm putcharfunc,2
 535               	.Letext0:
DEFINED SYMBOLS
                            *ABS*:00000000 rprintf.c
C:\DOCUME~1\Dokter\LOCALS~1\Temp/ccjxYLmh.s:2      *ABS*:0000003f __SREG__
C:\DOCUME~1\Dokter\LOCALS~1\Temp/ccjxYLmh.s:3      *ABS*:0000003e __SP_H__
C:\DOCUME~1\Dokter\LOCALS~1\Temp/ccjxYLmh.s:4      *ABS*:0000003d __SP_L__
C:\DOCUME~1\Dokter\LOCALS~1\Temp/ccjxYLmh.s:5      *ABS*:00000000 __tmp_reg__
C:\DOCUME~1\Dokter\LOCALS~1\Temp/ccjxYLmh.s:6      *ABS*:00000001 __zero_reg__
C:\DOCUME~1\Dokter\LOCALS~1\Temp/ccjxYLmh.s:19     .text:00000000 rprintf_devopen
                             .bss:00000000 putcharfunc
C:\DOCUME~1\Dokter\LOCALS~1\Temp/ccjxYLmh.s:35     .text:0000000a myputchar
C:\DOCUME~1\Dokter\LOCALS~1\Temp/ccjxYLmh.s:72     .text:00000032 rprintf

UNDEFINED SYMBOLS
__do_copy_data
__do_clear_bss
__udivmodsi4
